(dp0
S'novec'
p1
(dp2
V10
p3
(dp4
Vvif
p5
(lp6
F0.009766
aF1.5498
aF1.5498
asVs4114
p7
(lp8
F0.025391
aF10.64
aF10.64
asVs4115
p9
(lp10
F0.011719
aF0.94449
aF0.94449
asVs4116
p11
(lp12
F0.013672
aF0.65398
aF0.65398
asVs4117
p13
(lp14
F0.015625
aF10.241
aF10.241
asVs4113
p15
(lp16
F0.013672
aF11.55
aF11.55
asVs332
p17
(lp18
F0.009766
aF12.0
aF12.0
asVs331
p19
(lp20
F0.011719
aF10.0
aF10.0
asVs131
p21
(lp22
F0.009766
aF12.829
aF12.829
asVs132
p23
(lp24
F0.013672
aF100.96
aF100.96
asVs173
p25
(lp26
F0.015625
aF11.464
aF11.464
asVs424
p27
(lp28
F0.013672
aF10.54
aF10.54
asVs175
p29
(lp30
F0.013672
aF12.829
aF12.829
asVs174
p31
(lp32
F0.019531
aF11.464
aF11.464
asVs281
p33
(lp34
F0.017578
aF10.0
aF10.0
asVs242
p35
(lp36
F0.021484
aF135.0
aF135.0
asVs241
p37
(lp38
F0.025391
aF20.0
aF20.0
asVvag
p39
(lp40
F0.013672
aF1.5498
aF1.5498
asVvtv
p41
(lp42
F0.009766
aF10.0
aF10.0
asVvas
p43
(lp44
F0.009766
aF1.5498
aF1.5498
asVs161
p45
(lp46
F0.015625
aF21.88
aF21.88
asVs258
p47
(lp48
F0.021484
aF8.253
aF8.253
asVs3110
p49
(lp50
F0.009766
aF22.0
aF22.0
asVvsumr
p51
(lp52
F0.009766
aF2.929
aF2.929
asVs128
p53
(lp54
F0.017578
aF25.0
aF25.0
asVs277
p55
(lp56
F0.013672
aF10.0
aF10.0
asVs3112
p57
(lp58
F0.009766
aF15.668
aF15.668
asVs125
p59
(lp60
F0.009766
aF200.0
aF200.0
asVs278
p61
(lp62
F0.021484
aF24.479
aF24.479
asVs279
p63
(lp64
F0.019531
aF25.777
aF25.777
asVs232
p65
(lp66
F0.009766
aF100.0
aF100.0
asVs233
p67
(lp68
F0.015625
aF318.99
aF318.99
asVs231
p69
(lp70
F0.007812
aF169.74
aF169.74
asVs471
p71
(lp72
F0.025391
aF24.649
aF24.649
asVs234
p73
(lp74
F0.009766
aF169.74
aF169.74
asVs342
p75
(lp76
F0.011719
aF2.929
aF2.929
asVs343
p77
(lp78
F0.013672
aF29.29
aF29.29
asVs341
p79
(lp80
F0.013672
aF2.929
aF2.929
asVs123
p81
(lp82
F0.023438
aF12.927
aF12.927
asVvdotr
p83
(lp84
F0.009766
aF1.5498
aF1.5498
asVva
p85
(lp86
F0.009766
aF1.5498
aF1.5498
asVs322
p87
(lp88
F0.015625
aF10.0
aF10.0
asVs126
p89
(lp90
F0.007812
aF122.58
aF122.58
asVs352
p91
(lp92
F0.044922
aF1.5498
aF1.5498
asVs2710
p93
(lp94
F0.029297
aF33.1
aF33.1
asVs127
p95
(lp96
F0.027344
aF12.927
aF12.927
asVs319
p97
(lp98
F0.019531
aF11.716
aF11.716
asVs318
p99
(lp100
F0.019531
aF12.0
aF12.0
asVs151
p101
(lp102
F0.009766
aF12.829
aF12.829
asVs3111
p103
(lp104
F0.015625
aF2.929
aF2.929
asVs2102
p105
(lp106
F0.005859
aF10.0
aF10.0
asVs311
p107
(lp108
F0.009766
aF2.929
aF2.929
asVs313
p109
(lp110
F0.009766
aF1.5498
aF1.5498
asVs312
p111
(lp112
F0.009766
aF1.0
aF1.0
asVs315
p113
(lp114
F0.011719
aF2.0
aF2.0
asVs314
p115
(lp116
F0.009766
aF1.0
aF1.0
asVs317
p117
(lp118
F0.005859
aF0.9999
aF0.9999
asVs316
p119
(lp120
F0.009766
aF0.1
aF0.1
asVs119
p121
(lp122
F0.005859
aF122.58
aF122.58
asVs423
p123
(lp124
F0.009766
aF10.54
aF10.54
asVs116
p125
(lp126
F0.041016
aF10.0
aF10.0
asVs421
p127
(lp128
F0.009766
aF12.829
aF12.829
asVs114
p129
(lp130
F0.013672
aF29.64
aF29.64
asVs113
p131
(lp132
F0.009766
aF10.55
aF10.55
asVs112
p133
(lp134
F0.011719
aF22.569
aF22.569
asVs111
p135
(lp136
F0.017578
aF10.366
aF10.366
asVs222
p137
(lp138
F0.021484
aF10.0
aF10.0
asVvtvtv
p139
(lp140
F0.011719
aF10.0
aF10.0
asVs491
p141
(lp142
F0.013672
aF11.55
aF11.55
asVs321
p143
(lp144
F0.011719
aF10.0
aF10.0
asVs414
p145
(lp146
F0.013672
aF228.32
aF228.32
asVs323
p147
(lp148
F0.017578
aF35.924
aF35.924
asVs2111
p149
(lp150
F0.005859
aF3.0
aF3.0
asVvpvpv
p151
(lp152
F0.013672
aF1.5498
aF1.5498
asVs162
p153
(lp154
F0.015625
aF12.829
aF12.829
asVs291
p155
(lp156
F0.011719
aF10.0
aF10.0
asVs292
p157
(lp158
F0.013672
aF9.99
aF9.99
asVs293
p159
(lp160
F0.009766
aF10.0
aF10.0
asVs452
p161
(lp162
F0.013672
aF10.0
aF10.0
asVs453
p163
(lp164
F0.009766
aF5.8579
aF5.8579
asVs3113
p165
(lp166
F0.013672
aF2.0
aF2.0
asVs451
p167
(lp168
F0.207031
aF12.007
aF12.007
asVs211
p169
(lp170
F0.015625
aF15.974
aF15.974
asVs251
p171
(lp172
F0.011719
aF14.182
aF14.182
asVs252
p173
(lp174
F0.013672
aF19.0
aF19.0
asVs121
p175
(lp176
F0.009766
aF12.829
aF12.829
asVs254
p177
(lp178
F0.009766
aF10.0
aF10.0
asVs255
p179
(lp180
F0.011719
aF9.99
aF9.99
asVs124
p181
(lp182
F0.025391
aF6.4636
aF6.4636
asVs257
p183
(lp184
F0.009766
aF210.0
aF210.0
asVs275
p185
(lp186
F0.009766
aF100.0
aF100.0
asVs256
p187
(lp188
F0.013672
aF210.0
aF210.0
asVs422
p189
(lp190
F0.007812
aF6.6983
aF6.6983
asVvbor
p191
(lp192
F0.048828
aF180.04
aF180.04
assV100
p193
(dp194
Vvif
p195
(lp196
F0.005859
aF1.635
aF1.635
asVs4114
p197
(lp198
F0.009766
aF100.1
aF100.1
asVs4115
p199
(lp200
F0.005859
aF1.0289
aF1.0289
asVs4116
p201
(lp202
F0.007812
aF0.74717
aF0.74717
asVs4117
p203
(lp204
F0.007812
aF100.42
aF100.42
asVs4113
p205
(lp206
F0.009766
aF101.63
aF101.63
asVs332
p207
(lp208
F0.005859
aF102.0
aF102.0
asVs331
p209
(lp210
F0.005859
aF100.0
aF100.0
asVs131
p211
(lp212
F0.005859
aF105.18
aF105.18
asVs132
p213
(lp214
F0.005859
aF10002.0
aF10002.0
asVs173
p215
(lp216
F0.005859
aF101.63
aF101.63
asVs424
p217
(lp218
F0.005859
aF103.25
aF103.25
asVs175
p219
(lp220
F0.005859
aF105.18
aF105.18
asVs174
p221
(lp222
F0.007812
aF101.63
aF101.63
asVs281
p223
(lp224
F0.009766
aF100.0
aF100.0
asVs242
p225
(lp226
F0.019531
aF14850.0
aF14850.0
asVs241
p227
(lp228
F0.017578
aF200.0
aF200.0
asVvag
p229
(lp230
F0.007812
aF1.635
aF1.635
asVvtv
p231
(lp232
F0.007812
aF100.0
aF100.0
asVvas
p233
(lp234
F0.005859
aF1.635
aF1.635
asVs161
p235
(lp236
F0.013672
aF202.04
aF202.04
asVs258
p237
(lp238
F0.015625
aF12.779
aF12.779
asVs3110
p239
(lp240
F0.007812
aF202.0
aF202.0
asVvsumr
p241
(lp242
F0.003906
aF5.1874
aF5.1874
asVs128
p243
(lp244
F0.009766
aF250.0
aF250.0
asVs277
p245
(lp246
F0.009766
aF100.0
aF100.0
asVs3112
p247
(lp248
F0.009766
aF161.58
aF161.58
asVs125
p249
(lp250
F0.015625
aF20000.0
aF20000.0
asVs278
p251
(lp252
F0.015625
aF206.82
aF206.82
asVs279
p253
(lp254
F0.013672
aF208.48
aF208.48
asVs232
p255
(lp256
F0.015625
aF10000.0
aF10000.0
asVs233
p257
(lp258
F0.019531
aF63220.0
aF63220.0
asVs231
p259
(lp260
F0.005859
aF18093.0
aF18093.0
asVs471
p261
(lp262
F0.021484
aF204.9
aF204.9
asVs234
p263
(lp264
F0.013672
aF18093.0
aF18093.0
asVs342
p265
(lp266
F0.009766
aF5.1874
aF5.1874
asVs343
p267
(lp268
F0.009766
aF518.74
aF518.74
asVs341
p269
(lp270
F0.009766
aF5.1874
aF5.1874
asVs123
p271
(lp272
F0.017578
aF103.25
aF103.25
asVvdotr
p273
(lp274
F0.003906
aF1.635
aF1.635
asVva
p275
(lp276
F0.001953
aF1.635
aF1.635
asVs322
p277
(lp278
F0.025391
aF100.0
aF100.0
asVs126
p279
(lp280
F0.013672
aF10460.0
aF10460.0
asVs352
p281
(lp282
F0.023438
aF1.635
aF1.635
asVs2710
p283
(lp284
F0.019531
aF303.27
aF303.27
asVs127
p285
(lp286
F0.015625
aF103.25
aF103.25
asVs319
p287
(lp288
F0.019531
aF20.75
aF20.75
asVs318
p289
(lp290
F0.011719
aF102.0
aF102.0
asVs151
p291
(lp292
F0.007812
aF105.18
aF105.18
asVs3111
p293
(lp294
F0.007812
aF5.1874
aF5.1874
asVs2102
p295
(lp296
F0.0
aF100.0
aF100.0
asVs311
p297
(lp298
F0.007812
aF5.1874
aF5.1874
asVs313
p299
(lp300
F0.001953
aF1.635
aF1.635
asVs312
p301
(lp302
F0.005859
aF1.0001
aF1.0001
asVs315
p303
(lp304
F0.009766
aF2.0
aF2.0
asVs314
p305
(lp306
F0.009766
aF1.0
aF1.0
asVs317
p307
(lp308
F0.009766
aF0.999
aF0.999
asVs316
p309
(lp310
F0.003906
aF0.01
aF0.01
asVs119
p311
(lp312
F0.005859
aF13099.0
aF13099.0
asVs423
p313
(lp314
F0.005859
aF100.64
aF100.64
asVs116
p315
(lp316
F0.029297
aF100.0
aF100.0
asVs421
p317
(lp318
F0.007812
aF105.18
aF105.18
asVs114
p319
(lp320
F0.009766
aF353.12
aF353.12
asVs113
p321
(lp322
F0.003906
aF100.63
aF100.63
asVs112
p323
(lp324
F0.005859
aF258.31
aF258.31
asVs111
p325
(lp326
F0.005859
aF100.41
aF100.41
asVs222
p327
(lp328
F0.025391
aF100.0
aF100.0
asVvtvtv
p329
(lp330
F0.007812
aF100.0
aF100.0
asVs491
p331
(lp332
F0.009766
aF101.63
aF101.63
asVs321
p333
(lp334
F0.019531
aF100.0
aF100.0
asVs414
p335
(lp336
F0.015625
aF19131.0
aF19131.0
asVs323
p337
(lp338
F0.023438
aF439.15
aF439.15
asVs2111
p339
(lp340
F0.009766
aF3.0
aF3.0
asVvpvpv
p341
(lp342
F0.007812
aF1.635
aF1.635
asVs162
p343
(lp344
F0.009766
aF105.18
aF105.18
asVs291
p345
(lp346
F0.005859
aF100.0
aF100.0
asVs292
p347
(lp348
F0.009766
aF99.9
aF99.9
asVs293
p349
(lp350
F0.003906
aF100.0
aF100.0
asVs452
p351
(lp352
F0.009766
aF100.01
aF100.01
asVs453
p353
(lp354
F0.005859
aF10.375
aF10.375
asVs3113
p355
(lp356
F0.009766
aF2.0
aF2.0
asVs451
p357
(lp358
F0.195312
aF104.22
aF104.22
asVs211
p359
(lp360
F0.013672
aF191.55
aF191.55
asVs251
p361
(lp362
F0.005859
aF104.35
aF104.35
asVs252
p363
(lp364
F0.007812
aF199.0
aF199.0
asVs121
p365
(lp366
F0.005859
aF105.18
aF105.18
asVs254
p367
(lp368
F0.005859
aF100.0
aF100.0
asVs255
p369
(lp370
F0.005859
aF99.9
aF99.9
asVs124
p371
(lp372
F0.015625
aF51.625
aF51.625
asVs257
p373
(lp374
F0.011719
aF20100.0
aF20100.0
asVs275
p375
(lp376
F0.011719
aF10000.0
aF10000.0
asVs256
p377
(lp378
F0.017578
aF20100.0
aF20100.0
asVs422
p379
(lp380
F0.005859
aF52.293
aF52.293
asVvbor
p381
(lp382
F0.044922
aF180.04
aF180.04
assV1000
p383
(dp384
Vvif
p385
(lp386
F0.005859
aF1.6439
aF1.6439
asVs4114
p387
(lp388
F0.009766
aF1000.0
aF1000.0
asVs4115
p389
(lp390
F0.005859
aF1.0378
aF1.0378
asVs4116
p391
(lp392
F0.005859
aF0.75617
aF0.75617
asVs4117
p393
(lp394
F0.009766
aF1000.4
aF1000.4
asVs4113
p395
(lp396
F0.005859
aF1001.6
aF1001.6
asVs332
p397
(lp398
F0.005859
aF1002.0
aF1002.0
asVs331
p399
(lp400
F0.007812
aF1000.0
aF1000.0
asVs131
p401
(lp402
F0.001953
aF1007.5
aF1007.5
asVs132
p403
(lp404
F0.005859
aF1000000.0
aF1000000.0
asVs173
p405
(lp406
F0.003906
aF1001.6
aF1001.6
asVs424
p407
(lp408
F0.001953
aF1026.3
aF1026.3
asVs175
p409
(lp410
F0.005859
aF1007.5
aF1007.5
asVs174
p411
(lp412
F0.005859
aF1001.6
aF1001.6
asVs281
p413
(lp414
F0.005859
aF1000.0
aF1000.0
asVs242
p415
(lp416
F0.023438
aF1498500.0
aF1498500.0
asVs241
p417
(lp418
F0.019531
aF2000.0
aF2000.0
asVvag
p419
(lp420
F0.007812
aF1.6439
aF1.6439
asVvtv
p421
(lp422
F0.005859
aF1000.0
aF1000.0
asVvas
p423
(lp424
F0.005859
aF1.6439
aF1.6439
asVs161
p425
(lp426
F0.007812
aF2002.1
aF2002.1
asVs258
p427
(lp428
F0.015625
aF17.375
aF17.375
asVs3110
p429
(lp430
F0.007812
aF2002.0
aF2002.0
asVvsumr
p431
(lp432
F0.003906
aF7.4855
aF7.4855
asVs128
p433
(lp434
F0.009766
aF2500.0
aF2500.0
asVs277
p435
(lp436
F0.007812
aF1000.0
aF1000.0
asVs3112
p437
(lp438
F0.009766
aF1639.7
aF1639.7
asVs125
p439
(lp440
F0.011719
aF2000000.0
aF2000000.0
asVs278
p441
(lp442
F0.015625
aF2009.1
aF2009.1
asVs279
p443
(lp444
F0.011719
aF2010.8
aF2010.8
asVs232
p445
(lp446
F0.019531
aF1000000.0
aF1000000.0
asVs233
p447
(lp448
F0.019531
aF9733400.0
aF9733400.0
asVs231
p449
(lp450
F0.005859
aF1821100.0
aF1821100.0
asVs471
p451
(lp452
F0.025391
aF2004.9
aF2004.9
asVs234
p453
(lp454
F0.009766
aF1821100.0
aF1821100.0
asVs342
p455
(lp456
F0.005859
aF7.4855
aF7.4855
asVs343
p457
(lp458
F0.044922
aF7485.5
aF7485.5
asVs341
p459
(lp460
F0.005859
aF7.4855
aF7.4855
asVs123
p461
(lp462
F0.013672
aF1003.3
aF1003.3
asVvdotr
p463
(lp464
F0.001953
aF1.6439
aF1.6439
asVva
p465
(lp466
F0.0
aF1.6439
aF1.6439
asVs322
p467
(lp468
F0.029297
aF1000.0
aF1000.0
asVs126
p469
(lp470
F0.048828
aF1006900.0
aF1006900.0
asVs352
p471
(lp472
F0.019531
aF1.6439
aF1.6439
asVs2710
p473
(lp474
F0.019531
aF3003.3
aF3003.3
asVs127
p475
(lp476
F0.013672
aF1003.3
aF1003.3
asVs319
p477
(lp478
F0.023438
aF29.942
aF29.942
asVs318
p479
(lp480
F0.011719
aF1002.0
aF1002.0
asVs151
p481
(lp482
F0.003906
aF1007.5
aF1007.5
asVs3111
p483
(lp484
F0.007812
aF7.4855
aF7.4855
asVs2102
p485
(lp486
F0.003906
aF1000.0
aF1000.0
asVs311
p487
(lp488
F0.001953
aF7.4855
aF7.4855
asVs313
p489
(lp490
F0.003906
aF1.6439
aF1.6439
asVs312
p491
(lp492
F0.013672
aF1.001
aF1.001
asVs315
p493
(lp494
F0.009766
aF2.0
aF2.0
asVs314
p495
(lp496
F0.007812
aF1.0
aF1.0
asVs317
p497
(lp498
F0.013672
aF0.99005
aF0.99005
asVs316
p499
(lp500
F0.003906
aF0.001
aF0.001
asVs119
p501
(lp502
F0.005859
aF1321200.0
aF1321200.0
asVs423
p503
(lp504
F0.005859
aF1000.7
aF1000.7
asVs116
p505
(lp506
F0.025391
aF1000.0
aF1000.0
asVs421
p507
(lp508
F0.005859
aF1007.5
aF1007.5
asVs114
p509
(lp510
F0.011719
aF3629.0
aF3629.0
asVs113
p511
(lp512
F0.001953
aF1000.6
aF1000.6
asVs112
p513
(lp514
F0.007812
aF2636.4
aF2636.4
asVs111
p515
(lp516
F0.001953
aF1000.4
aF1000.4
asVs222
p517
(lp518
F0.021484
aF1000.0
aF1000.0
asVvtvtv
p519
(lp520
F0.009766
aF1000.0
aF1000.0
asVs491
p521
(lp522
F0.009766
aF1001.6
aF1001.6
asVs321
p523
(lp524
F0.021484
aF1000.0
aF1000.0
asVs414
p525
(lp526
F0.15625
aF1836100.0
aF1836100.0
asVs323
p527
(lp528
F0.021484
aF4551.7
aF4551.7
asVs2111
p529
(lp530
F0.009766
aF3.0
aF3.0
asVvpvpv
p531
(lp532
F0.005859
aF1.6439
aF1.6439
asVs162
p533
(lp534
F0.009766
aF1007.5
aF1007.5
asVs291
p535
(lp536
F0.007812
aF1000.0
aF1000.0
asVs292
p537
(lp538
F0.007812
aF999.0
aF999.0
asVs293
p539
(lp540
F0.003906
aF1000.0
aF1000.0
asVs452
p541
(lp542
F0.005859
aF1000.5
aF1000.5
asVs453
p543
(lp544
F0.005859
aF14.971
aF14.971
asVs3113
p545
(lp546
F0.007812
aF2.0
aF2.0
asVs451
p547
(lp548
F0.195312
aF1006.5
aF1006.5
asVs211
p549
(lp550
F0.013672
aF1987.0
aF1987.0
asVs251
p551
(lp552
F0.009766
aF1004.4
aF1004.4
asVs252
p553
(lp554
F0.005859
aF1999.0
aF1999.0
asVs121
p555
(lp556
F0.005859
aF1007.5
aF1007.5
asVs254
p557
(lp558
F0.001953
aF1000.0
aF1000.0
asVs255
p559
(lp560
F0.009766
aF999.0
aF999.0
asVs124
p561
(lp562
F0.011719
aF501.64
aF501.64
asVs257
p563
(lp564
F0.052734
aF2001000.0
aF2001000.0
asVs275
p565
(lp566
F0.009766
aF1000000.0
aF1000000.0
asVs256
p567
(lp568
F0.050781
aF2001000.0
aF2001000.0
asVs422
p569
(lp570
F0.003906
aF502.87
aF502.87
asVvbor
p571
(lp572
F0.041016
aF180.04
aF180.04
asssS'vec'
p573
(dp574
V10
p575
(dp576
Vvif
p577
(lp578
F0.013672
aF1.5498
aF1.5498
asVs4114
p579
(lp580
F0.021484
aF10.64
aF10.64
asVs4115
p581
(lp582
F0.013672
aF0.94449
aF0.94449
asVs4116
p583
(lp584
F0.011719
aF0.65398
aF0.65398
asVs4117
p585
(lp586
F0.013672
aF10.241
aF10.241
asVs4113
p587
(lp588
F0.013672
aF11.55
aF11.55
asVs332
p589
(lp590
F0.011719
aF12.0
aF12.0
asVs331
p591
(lp592
F0.013672
aF10.0
aF10.0
asVs131
p593
(lp594
F0.009766
aF12.829
aF12.829
asVs132
p595
(lp596
F0.009766
aF100.96
aF100.96
asVs173
p597
(lp598
F0.019531
aF11.464
aF11.464
asVs424
p599
(lp600
F0.005859
aF10.54
aF10.54
asVs175
p601
(lp602
F0.015625
aF12.829
aF12.829
asVs174
p603
(lp604
F0.019531
aF11.464
aF11.464
asVs281
p605
(lp606
F0.019531
aF10.0
aF10.0
asVs242
p607
(lp608
F0.023438
aF135.0
aF135.0
asVs241
p609
(lp610
F0.019531
aF20.0
aF20.0
asVvag
p611
(lp612
F0.011719
aF1.5498
aF1.5498
asVvtv
p613
(lp614
F0.009766
aF10.0
aF10.0
asVvas
p615
(lp616
F0.009766
aF1.5498
aF1.5498
asVs161
p617
(lp618
F0.017578
aF21.88
aF21.88
asVs258
p619
(lp620
F0.019531
aF8.253
aF8.253
asVs3110
p621
(lp622
F0.013672
aF22.0
aF22.0
asVvsumr
p623
(lp624
F0.007812
aF2.929
aF2.929
asVs128
p625
(lp626
F0.021484
aF25.0
aF25.0
asVs277
p627
(lp628
F0.011719
aF10.0
aF10.0
asVs3112
p629
(lp630
F0.009766
aF15.668
aF15.668
asVs125
p631
(lp632
F0.208984
aF200.0
aF200.0
asVs278
p633
(lp634
F0.019531
aF24.479
aF24.479
asVs279
p635
(lp636
F0.023438
aF25.777
aF25.777
asVs232
p637
(lp638
F0.009766
aF100.0
aF100.0
asVs233
p639
(lp640
F0.013672
aF318.99
aF318.99
asVs231
p641
(lp642
F0.005859
aF169.74
aF169.74
asVs471
p643
(lp644
F0.025391
aF24.649
aF24.649
asVs234
p645
(lp646
F0.005859
aF169.74
aF169.74
asVs342
p647
(lp648
F0.013672
aF2.929
aF2.929
asVs343
p649
(lp650
F0.011719
aF29.29
aF29.29
asVs341
p651
(lp652
F0.009766
aF2.929
aF2.929
asVs123
p653
(lp654
F0.025391
aF12.927
aF12.927
asVvdotr
p655
(lp656
F0.007812
aF1.5498
aF1.5498
asVva
p657
(lp658
F0.005859
aF1.5498
aF1.5498
asVs322
p659
(lp660
F0.015625
aF10.0
aF10.0
asVs126
p661
(lp662
F0.009766
aF122.58
aF122.58
asVs352
p663
(lp664
F0.046875
aF1.5498
aF1.5498
asVs2710
p665
(lp666
F0.021484
aF33.1
aF33.1
asVs127
p667
(lp668
F0.029297
aF12.927
aF12.927
asVs319
p669
(lp670
F0.015625
aF11.716
aF11.716
asVs318
p671
(lp672
F0.015625
aF12.0
aF12.0
asVs151
p673
(lp674
F0.009766
aF12.829
aF12.829
asVs3111
p675
(lp676
F0.013672
aF2.929
aF2.929
asVs2102
p677
(lp678
F0.005859
aF10.0
aF10.0
asVs311
p679
(lp680
F0.007812
aF2.929
aF2.929
asVs313
p681
(lp682
F0.011719
aF1.5498
aF1.5498
asVs312
p683
(lp684
F0.005859
aF1.0
aF1.0
asVs315
p685
(lp686
F0.015625
aF2.0
aF2.0
asVs314
p687
(lp688
F0.007812
aF1.0
aF1.0
asVs317
p689
(lp690
F0.005859
aF0.9999
aF0.9999
asVs316
p691
(lp692
F0.009766
aF0.1
aF0.1
asVs119
p693
(lp694
F0.005859
aF122.58
aF122.58
asVs423
p695
(lp696
F0.005859
aF10.54
aF10.54
asVs116
p697
(lp698
F0.044922
aF10.0
aF10.0
asVs421
p699
(lp700
F0.009766
aF12.829
aF12.829
asVs114
p701
(lp702
F0.009766
aF29.64
aF29.64
asVs113
p703
(lp704
F0.009766
aF10.55
aF10.55
asVs112
p705
(lp706
F0.011719
aF22.569
aF22.569
asVs111
p707
(lp708
F0.015625
aF10.366
aF10.366
asVs222
p709
(lp710
F0.019531
aF10.0
aF10.0
asVvtvtv
p711
(lp712
F0.011719
aF10.0
aF10.0
asVs491
p713
(lp714
F0.015625
aF11.55
aF11.55
asVs321
p715
(lp716
F0.013672
aF10.0
aF10.0
asVs414
p717
(lp718
F0.011719
aF228.32
aF228.32
asVs323
p719
(lp720
F0.015625
aF35.924
aF35.924
asVs2111
p721
(lp722
F0.005859
aF3.0
aF3.0
asVvpvpv
p723
(lp724
F0.013672
aF1.5498
aF1.5498
asVs162
p725
(lp726
F0.013672
aF12.829
aF12.829
asVs291
p727
(lp728
F0.007812
aF10.0
aF10.0
asVs292
p729
(lp730
F0.013672
aF9.99
aF9.99
asVs293
p731
(lp732
F0.009766
aF10.0
aF10.0
asVs452
p733
(lp734
F0.011719
aF10.0
aF10.0
asVs453
p735
(lp736
F0.009766
aF5.8579
aF5.8579
asVs3113
p737
(lp738
F0.007812
aF2.0
aF2.0
asVs451
p739
(lp740
F0.103516
aF12.007
aF12.007
asVs211
p741
(lp742
F0.019531
aF15.974
aF15.974
asVs251
p743
(lp744
F0.013672
aF14.182
aF14.182
asVs252
p745
(lp746
F0.011719
aF19.0
aF19.0
asVs121
p747
(lp748
F0.009766
aF12.829
aF12.829
asVs254
p749
(lp750
F0.013672
aF10.0
aF10.0
asVs255
p751
(lp752
F0.011719
aF9.99
aF9.99
asVs124
p753
(lp754
F0.025391
aF6.4636
aF6.4636
asVs257
p755
(lp756
F0.013672
aF210.0
aF210.0
asVs275
p757
(lp758
F0.011719
aF100.0
aF100.0
asVs256
p759
(lp760
F0.009766
aF210.0
aF210.0
asVs422
p761
(lp762
F0.005859
aF6.6983
aF6.6983
asVvbor
p763
(lp764
F0.052734
aF180.04
aF180.04
assV100
p765
(dp766
Vvif
p767
(lp768
F0.005859
aF1.635
aF1.635
asVs4114
p769
(lp770
F0.005859
aF100.1
aF100.1
asVs4115
p771
(lp772
F0.007812
aF1.0289
aF1.0289
asVs4116
p773
(lp774
F0.005859
aF0.74717
aF0.74717
asVs4117
p775
(lp776
F0.005859
aF100.42
aF100.42
asVs4113
p777
(lp778
F0.005859
aF101.63
aF101.63
asVs332
p779
(lp780
F0.005859
aF102.0
aF102.0
asVs331
p781
(lp782
F0.005859
aF100.0
aF100.0
asVs131
p783
(lp784
F0.003906
aF105.18
aF105.18
asVs132
p785
(lp786
F0.001953
aF10002.0
aF10002.0
asVs173
p787
(lp788
F0.005859
aF101.63
aF101.63
asVs424
p789
(lp790
F0.003906
aF103.25
aF103.25
asVs175
p791
(lp792
F0.009766
aF105.18
aF105.18
asVs174
p793
(lp794
F0.003906
aF101.63
aF101.63
asVs281
p795
(lp796
F0.009766
aF100.0
aF100.0
asVs242
p797
(lp798
F0.015625
aF14850.0
aF14850.0
asVs241
p799
(lp800
F0.005859
aF200.0
aF200.0
asVvag
p801
(lp802
F0.005859
aF1.635
aF1.635
asVvtv
p803
(lp804
F0.003906
aF100.0
aF100.0
asVvas
p805
(lp806
F0.005859
aF1.635
aF1.635
asVs161
p807
(lp808
F0.017578
aF202.04
aF202.04
asVs258
p809
(lp810
F0.013672
aF12.779
aF12.779
asVs3110
p811
(lp812
F0.009766
aF202.0
aF202.0
asVvsumr
p813
(lp814
F0.003906
aF5.1874
aF5.1874
asVs128
p815
(lp816
F0.009766
aF250.0
aF250.0
asVs277
p817
(lp818
F0.009766
aF100.0
aF100.0
asVs3112
p819
(lp820
F0.009766
aF161.58
aF161.58
asVs125
p821
(lp822
F0.035156
aF20000.0
aF20000.0
asVs278
p823
(lp824
F0.011719
aF206.82
aF206.82
asVs279
p825
(lp826
F0.015625
aF208.48
aF208.48
asVs232
p827
(lp828
F0.019531
aF10000.0
aF10000.0
asVs233
p829
(lp830
F0.011719
aF63220.0
aF63220.0
asVs231
p831
(lp832
F0.003906
aF18093.0
aF18093.0
asVs471
p833
(lp834
F0.023438
aF204.9
aF204.9
asVs234
p835
(lp836
F0.005859
aF18093.0
aF18093.0
asVs342
p837
(lp838
F0.009766
aF5.1874
aF5.1874
asVs343
p839
(lp840
F0.013672
aF518.74
aF518.74
asVs341
p841
(lp842
F0.005859
aF5.1874
aF5.1874
asVs123
p843
(lp844
F0.015625
aF103.25
aF103.25
asVvdotr
p845
(lp846
F0.0
aF1.635
aF1.635
asVva
p847
(lp848
F0.003906
aF1.635
aF1.635
asVs322
p849
(lp850
F0.025391
aF100.0
aF100.0
asVs126
p851
(lp852
F0.017578
aF10460.0
aF10460.0
asVs352
p853
(lp854
F0.019531
aF1.635
aF1.635
asVs2710
p855
(lp856
F0.019531
aF303.27
aF303.27
asVs127
p857
(lp858
F0.005859
aF103.25
aF103.25
asVs319
p859
(lp860
F0.007812
aF20.75
aF20.75
asVs318
p861
(lp862
F0.013672
aF102.0
aF102.0
asVs151
p863
(lp864
F0.007812
aF105.18
aF105.18
asVs3111
p865
(lp866
F0.003906
aF5.1874
aF5.1874
asVs2102
p867
(lp868
F0.003906
aF100.0
aF100.0
asVs311
p869
(lp870
F0.001953
aF5.1874
aF5.1874
asVs313
p871
(lp872
F0.003906
aF1.635
aF1.635
asVs312
p873
(lp874
F0.003906
aF1.0001
aF1.0001
asVs315
p875
(lp876
F0.007812
aF2.0
aF2.0
asVs314
p877
(lp878
F0.001953
aF1.0
aF1.0
asVs317
p879
(lp880
F0.003906
aF0.999
aF0.999
asVs316
p881
(lp882
F0.001953
aF0.01
aF0.01
asVs119
p883
(lp884
F0.003906
aF13099.0
aF13099.0
asVs423
p885
(lp886
F0.005859
aF100.64
aF100.64
asVs116
p887
(lp888
F0.017578
aF100.0
aF100.0
asVs421
p889
(lp890
F0.003906
aF105.18
aF105.18
asVs114
p891
(lp892
F0.005859
aF353.12
aF353.12
asVs113
p893
(lp894
F0.003906
aF100.63
aF100.63
asVs112
p895
(lp896
F0.005859
aF258.31
aF258.31
asVs111
p897
(lp898
F0.005859
aF100.41
aF100.41
asVs222
p899
(lp900
F0.025391
aF100.0
aF100.0
asVvtvtv
p901
(lp902
F0.003906
aF100.0
aF100.0
asVs491
p903
(lp904
F0.009766
aF101.63
aF101.63
asVs321
p905
(lp906
F0.019531
aF100.0
aF100.0
asVs414
p907
(lp908
F0.015625
aF19131.0
aF19131.0
asVs323
p909
(lp910
F0.023438
aF439.15
aF439.15
asVs2111
p911
(lp912
F0.009766
aF3.0
aF3.0
asVvpvpv
p913
(lp914
F0.005859
aF1.635
aF1.635
asVs162
p915
(lp916
F0.005859
aF105.18
aF105.18
asVs291
p917
(lp918
F0.001953
aF100.0
aF100.0
asVs292
p919
(lp920
F0.005859
aF99.9
aF99.9
asVs293
p921
(lp922
F0.007812
aF100.0
aF100.0
asVs452
p923
(lp924
F0.005859
aF100.01
aF100.01
asVs453
p925
(lp926
F0.005859
aF10.375
aF10.375
asVs3113
p927
(lp928
F0.005859
aF2.0
aF2.0
asVs451
p929
(lp930
F0.095703
aF104.22
aF104.22
asVs211
p931
(lp932
F0.007812
aF191.55
aF191.55
asVs251
p933
(lp934
F0.005859
aF104.35
aF104.35
asVs252
p935
(lp936
F0.003906
aF199.0
aF199.0
asVs121
p937
(lp938
F0.001953
aF105.18
aF105.18
asVs254
p939
(lp940
F0.005859
aF100.0
aF100.0
asVs255
p941
(lp942
F0.007812
aF99.9
aF99.9
asVs124
p943
(lp944
F0.015625
aF51.625
aF51.625
asVs257
p945
(lp946
F0.011719
aF20100.0
aF20100.0
asVs275
p947
(lp948
F0.015625
aF10000.0
aF10000.0
asVs256
p949
(lp950
F0.015625
aF20100.0
aF20100.0
asVs422
p951
(lp952
F0.003906
aF52.293
aF52.293
asVvbor
p953
(lp954
F0.042969
aF180.04
aF180.04
assV1000
p955
(dp956
Vvif
p957
(lp958
F0.005859
aF1.6439
aF1.6439
asVs4114
p959
(lp960
F0.009766
aF1000.0
aF1000.0
asVs4115
p961
(lp962
F0.001953
aF1.0378
aF1.0378
asVs4116
p963
(lp964
F0.003906
aF0.75617
aF0.75617
asVs4117
p965
(lp966
F0.005859
aF1000.4
aF1000.4
asVs4113
p967
(lp968
F0.007812
aF1001.6
aF1001.6
asVs332
p969
(lp970
F0.005859
aF1002.0
aF1002.0
asVs331
p971
(lp972
F0.003906
aF1000.0
aF1000.0
asVs131
p973
(lp974
F0.003906
aF1007.5
aF1007.5
asVs132
p975
(lp976
F0.001953
aF1000000.0
aF1000000.0
asVs173
p977
(lp978
F0.003906
aF1001.6
aF1001.6
asVs424
p979
(lp980
F0.0
aF1026.3
aF1026.3
asVs175
p981
(lp982
F0.005859
aF1007.5
aF1007.5
asVs174
p983
(lp984
F0.003906
aF1001.6
aF1001.6
asVs281
p985
(lp986
F0.009766
aF1000.0
aF1000.0
asVs242
p987
(lp988
F0.011719
aF1498500.0
aF1498500.0
asVs241
p989
(lp990
F0.009766
aF2000.0
aF2000.0
asVvag
p991
(lp992
F0.005859
aF1.6439
aF1.6439
asVvtv
p993
(lp994
F0.0
aF1000.0
aF1000.0
asVvas
p995
(lp996
F0.003906
aF1.6439
aF1.6439
asVs161
p997
(lp998
F0.009766
aF2002.1
aF2002.1
asVs258
p999
(lp1000
F0.015625
aF17.375
aF17.375
asVs3110
p1001
(lp1002
F0.005859
aF2002.0
aF2002.0
asVvsumr
p1003
(lp1004
F0.0
aF7.4855
aF7.4855
asVs128
p1005
(lp1006
F0.005859
aF2500.0
aF2500.0
asVs277
p1007
(lp1008
F0.009766
aF1000.0
aF1000.0
asVs3112
p1009
(lp1010
F0.007812
aF1639.7
aF1639.7
asVs125
p1011
(lp1012
F0.009766
aF2000000.0
aF2000000.0
asVs278
p1013
(lp1014
F0.009766
aF2009.1
aF2009.1
asVs279
p1015
(lp1016
F0.015625
aF2010.8
aF2010.8
asVs232
p1017
(lp1018
F0.023438
aF1000000.0
aF1000000.0
asVs233
p1019
(lp1020
F0.015625
aF9733400.0
aF9733400.0
asVs231
p1021
(lp1022
F0.005859
aF1821100.0
aF1821100.0
asVs471
p1023
(lp1024
F0.021484
aF2004.9
aF2004.9
asVs234
p1025
(lp1026
F0.005859
aF1821100.0
aF1821100.0
asVs342
p1027
(lp1028
F0.005859
aF7.4855
aF7.4855
asVs343
p1029
(lp1030
F0.048828
aF7485.5
aF7485.5
asVs341
p1031
(lp1032
F0.007812
aF7.4855
aF7.4855
asVs123
p1033
(lp1034
F0.011719
aF1003.3
aF1003.3
asVvdotr
p1035
(lp1036
F0.003906
aF1.6439
aF1.6439
asVva
p1037
(lp1038
F0.0
aF1.6439
aF1.6439
asVs322
p1039
(lp1040
F0.029297
aF1000.0
aF1000.0
asVs126
p1041
(lp1042
F0.046875
aF1006900.0
aF1006900.0
asVs352
p1043
(lp1044
F0.019531
aF1.6439
aF1.6439
asVs2710
p1045
(lp1046
F0.019531
aF3003.3
aF3003.3
asVs127
p1047
(lp1048
F0.005859
aF1003.3
aF1003.3
asVs319
p1049
(lp1050
F0.009766
aF29.942
aF29.942
asVs318
p1051
(lp1052
F0.009766
aF1002.0
aF1002.0
asVs151
p1053
(lp1054
F0.003906
aF1007.5
aF1007.5
asVs3111
p1055
(lp1056
F0.003906
aF7.4855
aF7.4855
asVs2102
p1057
(lp1058
F0.003906
aF1000.0
aF1000.0
asVs311
p1059
(lp1060
F0.001953
aF7.4855
aF7.4855
asVs313
p1061
(lp1062
F0.003906
aF1.6439
aF1.6439
asVs312
p1063
(lp1064
F0.003906
aF1.001
aF1.001
asVs315
p1065
(lp1066
F0.005859
aF2.0
aF2.0
asVs314
p1067
(lp1068
F0.005859
aF1.0
aF1.0
asVs317
p1069
(lp1070
F0.005859
aF0.99005
aF0.99005
asVs316
p1071
(lp1072
F0.003906
aF0.001
aF0.001
asVs119
p1073
(lp1074
F0.005859
aF1321200.0
aF1321200.0
asVs423
p1075
(lp1076
F0.005859
aF1000.7
aF1000.7
asVs116
p1077
(lp1078
F0.011719
aF1000.0
aF1000.0
asVs421
p1079
(lp1080
F0.001953
aF1007.5
aF1007.5
asVs114
p1081
(lp1082
F0.015625
aF3629.0
aF3629.0
asVs113
p1083
(lp1084
F0.003906
aF1000.6
aF1000.6
asVs112
p1085
(lp1086
F0.005859
aF2636.4
aF2636.4
asVs111
p1087
(lp1088
F0.007812
aF1000.4
aF1000.4
asVs222
p1089
(lp1090
F0.021484
aF1000.0
aF1000.0
asVvtvtv
p1091
(lp1092
F0.003906
aF1000.0
aF1000.0
asVs491
p1093
(lp1094
F0.009766
aF1001.6
aF1001.6
asVs321
p1095
(lp1096
F0.021484
aF1000.0
aF1000.0
asVs414
p1097
(lp1098
F0.164062
aF1836100.0
aF1836100.0
asVs323
p1099
(lp1100
F0.021484
aF4551.7
aF4551.7
asVs2111
p1101
(lp1102
F0.009766
aF3.0
aF3.0
asVvpvpv
p1103
(lp1104
F0.001953
aF1.6439
aF1.6439
asVs162
p1105
(lp1106
F0.005859
aF1007.5
aF1007.5
asVs291
p1107
(lp1108
F0.003906
aF1000.0
aF1000.0
asVs292
p1109
(lp1110
F0.005859
aF999.0
aF999.0
asVs293
p1111
(lp1112
F0.003906
aF1000.0
aF1000.0
asVs452
p1113
(lp1114
F0.003906
aF1000.5
aF1000.5
asVs453
p1115
(lp1116
F0.005859
aF14.971
aF14.971
asVs3113
p1117
(lp1118
F0.003906
aF2.0
aF2.0
asVs451
p1119
(lp1120
F0.099609
aF1006.5
aF1006.5
asVs211
p1121
(lp1122
F0.005859
aF1987.0
aF1987.0
asVs251
p1123
(lp1124
F0.003906
aF1004.4
aF1004.4
asVs252
p1125
(lp1126
F0.005859
aF1999.0
aF1999.0
asVs121
p1127
(lp1128
F0.003906
aF1007.5
aF1007.5
asVs254
p1129
(lp1130
F0.003906
aF1000.0
aF1000.0
asVs255
p1131
(lp1132
F0.005859
aF999.0
aF999.0
asVs124
p1133
(lp1134
F0.013672
aF501.64
aF501.64
asVs257
p1135
(lp1136
F0.050781
aF2001000.0
aF2001000.0
asVs275
p1137
(lp1138
F0.009766
aF1000000.0
aF1000000.0
asVs256
p1139
(lp1140
F0.046875
aF2001000.0
aF2001000.0
asVs422
p1141
(lp1142
F0.003906
aF502.87
aF502.87
asVvbor
p1143
(lp1144
F0.044922
aF180.04
aF180.04
asss.