(dp0
S'nosve'
p1
(dp2
S'novec'
p3
(dp4
V10
p5
(dp6
Vvif
p7
(lp8
F0.00118
aF1.5498
aF1.5498
asVs481
p9
(lp10
F0.002104
aF154990.0
aF154990.0
asVs113
p11
(lp12
F0.000812
aF10.55
aF10.55
asVs4116
p13
(lp14
F0.001256
aF0.65398
aF0.65398
asVs411
p15
(lp16
F0.001159
aF154990.0
aF154990.0
asVs4112
p17
(lp18
F0.001179
aF292910.0
aF292910.0
asVs4113
p19
(lp20
F0.003024
aF11.55
aF11.55
asVs332
p21
(lp22
F0.00128
aF12.0
aF12.0
asVs331
p23
(lp24
F0.000789
aF10.0
aF10.0
asVs131
p25
(lp26
F0.001049
aF12.829
aF12.829
asVs132
p27
(lp28
F0.00106
aF100.96
aF100.96
asVs171
p29
(lp30
F0.000971
aF154990.0
aF154990.0
asVs173
p31
(lp32
F0.001053
aF11.464
aF11.464
asVs172
p33
(lp34
F0.001291
aF154990.0
aF154990.0
asVs175
p35
(lp36
F0.00111
aF12.829
aF12.829
asVs174
p37
(lp38
F0.001064
aF11.464
aF11.464
asVs281
p39
(lp40
F0.001898
aF10.0
aF10.0
asVs176
p41
(lp42
F0.001567
aF94864.0
aF94864.0
asVs243
p43
(lp44
F0.002007
aF703170.0
aF703170.0
asVs242
p45
(lp46
F0.002454
aF135.0
aF135.0
asVs241
p47
(lp48
F0.001886
aF20.0
aF20.0
asVs441
p49
(lp50
F0.003539
aF154990.0
aF154990.0
asVvag
p51
(lp52
F0.001147
aF1.5498
aF1.5498
asVs443
p53
(lp54
F0.002594
aF154990.0
aF154990.0
asVs244
p55
(lp56
F0.001574
aF21.9
aF21.9
asVs4114
p57
(lp58
F0.00167
aF10.64
aF10.64
asVs4115
p59
(lp60
F0.001049
aF0.94449
aF0.94449
asVvas
p61
(lp62
F0.002605
aF1.5498
aF1.5498
asVs161
p63
(lp64
F0.002841
aF21.88
aF21.88
asVs3111
p65
(lp66
F0.001178
aF2.929
aF2.929
asVs482
p67
(lp68
F0.001851
aF154990.0
aF154990.0
asVs4121
p69
(lp70
F0.00102
aF154990.0
aF154990.0
asVs233
p71
(lp72
F0.004686
aF318.99
aF318.99
asVvsumr
p73
(lp74
F0.000787
aF2.929
aF2.929
asVvtv
p75
(lp76
F0.001136
aF10.0
aF10.0
asVs128
p77
(lp78
F0.00116
aF25.0
aF25.0
asVs276
p79
(lp80
F0.002886
aF154990.0
aF154990.0
asVs277
p81
(lp82
F0.001864
aF10.0
aF10.0
asVs274
p83
(lp84
F0.002764
aF1155000.0
aF1155000.0
asVs275
p85
(lp86
F0.003392
aF100.0
aF100.0
asVs272
p87
(lp88
F0.002808
aF309970.0
aF309970.0
asVs273
p89
(lp90
F0.002506
aF31.308
aF31.308
asVs271
p91
(lp92
F0.001844
aF154990.0
aF154990.0
asVs278
p93
(lp94
F0.002758
aF24.479
aF24.479
asVs279
p95
(lp96
F0.002758
aF25.777
aF25.777
asVs232
p97
(lp98
F0.001713
aF100.0
aF100.0
asVs261
p99
(lp100
F0.00151
aF208970.0
aF208970.0
asVs341
p101
(lp102
F0.001178
aF2.929
aF2.929
asVs231
p103
(lp104
F0.002806
aF169.74
aF169.74
asVs414
p105
(lp106
F0.003572
aF228.32
aF228.32
asVs234
p107
(lp108
F0.003504
aF169.74
aF169.74
asVs318
p109
(lp110
F0.001797
aF12.0
aF12.0
asVs342
p111
(lp112
F0.00119
aF2.929
aF2.929
asVs343
p113
(lp114
F0.002072
aF29.29
aF29.29
asVs432
p115
(lp116
F0.001168
aF154990.0
aF154990.0
asVs235
p117
(lp118
F0.003753
aF502590.0
aF502590.0
asVvpvtv
p119
(lp120
F0.001156
aF154990.0
aF154990.0
asVs123
p121
(lp122
F0.002891
aF12.927
aF12.927
asVs351
p123
(lp124
F0.002893
aF5000000.0
aF5000000.0
asVvpvts
p125
(lp126
F0.001203
aF154990.0
aF154990.0
asVvdotr
p127
(lp128
F0.001198
aF1.5498
aF1.5498
asVva
p129
(lp130
F0.000788
aF1.5498
aF1.5498
asVs121
p131
(lp132
F0.000876
aF12.829
aF12.829
asVs452
p133
(lp134
F0.001243
aF10.0
aF10.0
asVs126
p135
(lp136
F0.003842
aF122.58
aF122.58
asVs352
p137
(lp138
F0.002787
aF1.5498
aF1.5498
asVs2710
p139
(lp140
F0.003124
aF33.1
aF33.1
asVs2711
p141
(lp142
F0.001842
aF154990.0
aF154990.0
asVs2712
p143
(lp144
F0.001833
aF54987.0
aF54987.0
asVs127
p145
(lp146
F0.001345
aF12.927
aF12.927
asVs319
p147
(lp148
F0.002235
aF11.716
aF11.716
asVs152
p149
(lp150
F0.001686
aF119760.0
aF119760.0
asVs151
p151
(lp152
F0.001058
aF12.829
aF12.829
asVvpv
p153
(lp154
F0.000798
aF154980.0
aF154980.0
asVs2101
p155
(lp156
F0.001155
aF155080.0
aF155080.0
asVs124
p157
(lp158
F0.002122
aF6.4636
aF6.4636
asVs353
p159
(lp160
F0.00462
aF5000000.0
aF5000000.0
asVs2102
p161
(lp162
F0.001285
aF10.0
aF10.0
asVs311
p163
(lp164
F0.000814
aF2.929
aF2.929
asVs313
p165
(lp166
F0.000843
aF1.5498
aF1.5498
asVs312
p167
(lp168
F0.000787
aF1.0
aF1.0
asVs315
p169
(lp170
F0.001183
aF2.0
aF2.0
asVs314
p171
(lp172
F0.001363
aF1.0
aF1.0
asVs317
p173
(lp174
F0.000813
aF0.9999
aF0.9999
asVs316
p175
(lp176
F0.000744
aF0.1
aF0.1
asVs453
p177
(lp178
F0.001201
aF5.8579
aF5.8579
asVs119
p179
(lp180
F0.001526
aF122.58
aF122.58
asVs118
p181
(lp182
F0.001954
aF10.924
aF10.924
asVs423
p183
(lp184
F0.001048
aF10.54
aF10.54
asVs116
p185
(lp186
F0.000262
aF10.0
aF10.0
asVs115
p187
(lp188
F0.001892
aF9.1237
aF9.1237
asVs114
p189
(lp190
F0.001689
aF29.64
aF29.64
asVs221
p191
(lp192
F0.002199
aF466900.0
aF466900.0
asVs112
p193
(lp194
F0.000929
aF22.569
aF22.569
asVs111
p195
(lp196
F0.001071
aF10.366
aF10.366
asVs222
p197
(lp198
F0.002433
aF10.0
aF10.0
asVs451
p199
(lp200
F0.060819
aF12.007
aF12.007
asVs431
p201
(lp202
F0.000788
aF154990.0
aF154990.0
asVs4117
p203
(lp204
F0.001223
aF10.241
aF10.241
asVs424
p205
(lp206
F0.00106
aF10.54
aF10.54
asVvtvtv
p207
(lp208
F0.001192
aF10.0
aF10.0
asVs491
p209
(lp210
F0.003422
aF11.55
aF11.55
asVs321
p211
(lp212
F0.001233
aF10.0
aF10.0
asVs322
p213
(lp214
F0.002049
aF10.0
aF10.0
asVs323
p215
(lp216
F0.001603
aF35.924
aF35.924
asVs412
p217
(lp218
F0.001374
aF154990.0
aF154990.0
asVs413
p219
(lp220
F0.001974
aF154000.0
aF154000.0
asVs471
p221
(lp222
F-1.1e-05
aF24.649
aF24.649
asVs2111
p223
(lp224
F0.00229
aF3.0
aF3.0
asVs442
p225
(lp226
F0.004027
aF154990.0
aF154990.0
asVvpvpv
p227
(lp228
F0.00118
aF1.5498
aF1.5498
asVs162
p229
(lp230
F0.001102
aF12.829
aF12.829
asVs291
p231
(lp232
F0.001422
aF10.0
aF10.0
asVs292
p233
(lp234
F0.001744
aF9.99
aF9.99
asVs293
p235
(lp236
F0.000756
aF10.0
aF10.0
asVs258
p237
(lp238
F0.002755
aF8.253
aF8.253
asVs3110
p239
(lp240
F0.002586
aF22.0
aF22.0
asVs3113
p241
(lp242
F0.001407
aF2.0
aF2.0
asVs3112
p243
(lp244
F0.000867
aF15.668
aF15.668
asVs211
p245
(lp246
F0.001295
aF15.974
aF15.974
asVs212
p247
(lp248
F0.00153
aF90013.0
aF90013.0
asVs141
p249
(lp250
F0.0013
aF141280.0
aF141280.0
asVs122
p251
(lp252
F0.001286
aF154990.0
aF154990.0
asVs251
p253
(lp254
F0.001453
aF14.182
aF14.182
asVs252
p255
(lp256
F0.001235
aF19.0
aF19.0
asVs253
p257
(lp258
F0.002362
aF985370.0
aF985370.0
asVs254
p259
(lp260
F0.001203
aF10.0
aF10.0
asVs255
p261
(lp262
F0.001798
aF9.99
aF9.99
asVs256
p263
(lp264
F0.001554
aF210.0
aF210.0
asVs125
p265
(lp266
F0.00254
aF200.0
aF200.0
asVs415
p267
(lp268
F0.000727
aF153980.0
aF153980.0
asVs422
p269
(lp270
F0.001148
aF6.6983
aF6.6983
asVvbor
p271
(lp272
F0.013448
aF180.04
aF180.04
asVs421
p273
(lp274
F0.000753
aF12.829
aF12.829
asVs257
p275
(lp276
F0.001485
aF210.0
aF210.0
assV100
p277
(dp278
Vvif
p279
(lp280
F0.001343
aF1.635
aF1.635
asVs481
p281
(lp282
F0.002214
aF16450.0
aF16450.0
asVs113
p283
(lp284
F0.001053
aF100.63
aF100.63
asVs4116
p285
(lp286
F0.001401
aF0.74717
aF0.74717
asVs411
p287
(lp288
F0.001372
aF16450.0
aF16450.0
asVs4112
p289
(lp290
F0.002276
aF51974.0
aF51974.0
asVs4113
p291
(lp292
F0.004012
aF101.63
aF101.63
asVs332
p293
(lp294
F0.001375
aF102.0
aF102.0
asVs331
p295
(lp296
F0.001089
aF100.0
aF100.0
asVs131
p297
(lp298
F0.001335
aF105.18
aF105.18
asVs132
p299
(lp300
F0.001343
aF10002.0
aF10002.0
asVs171
p301
(lp302
F0.001218
aF16450.0
aF16450.0
asVs173
p303
(lp304
F0.001387
aF101.63
aF101.63
asVs172
p305
(lp306
F0.001366
aF16450.0
aF16450.0
asVs175
p307
(lp308
F0.00136
aF105.18
aF105.18
asVs174
p309
(lp310
F0.001375
aF101.63
aF101.63
asVs281
p311
(lp312
F0.00188
aF100.0
aF100.0
asVs176
p313
(lp314
F0.001221
aF1756.3
aF1756.3
asVs243
p315
(lp316
F0.002649
aF74453.0
aF74453.0
asVs242
p317
(lp318
F0.003503
aF14850.0
aF14850.0
asVs241
p319
(lp320
F0.002594
aF200.0
aF200.0
asVs441
p321
(lp322
F0.003624
aF16450.0
aF16450.0
asVvag
p323
(lp324
F0.001354
aF1.635
aF1.635
asVs443
p325
(lp326
F0.002898
aF16450.0
aF16450.0
asVs244
p327
(lp328
F0.002099
aF201.99
aF201.99
asVs4114
p329
(lp330
F0.00197
aF100.1
aF100.1
asVs4115
p331
(lp332
F0.002203
aF1.0289
aF1.0289
asVvas
p333
(lp334
F0.003521
aF1.635
aF1.635
asVs161
p335
(lp336
F0.00328
aF202.04
aF202.04
asVs3111
p337
(lp338
F0.001729
aF5.1874
aF5.1874
asVs482
p339
(lp340
F0.002225
aF16450.0
aF16450.0
asVs4121
p341
(lp342
F0.001375
aF16450.0
aF16450.0
asVs233
p343
(lp344
F0.011758
aF63220.0
aF63220.0
asVvsumr
p345
(lp346
F0.001641
aF5.1874
aF5.1874
asVvtv
p347
(lp348
F0.001364
aF100.0
aF100.0
asVs128
p349
(lp350
F0.001668
aF250.0
aF250.0
asVs276
p351
(lp352
F0.002977
aF16450.0
aF16450.0
asVs277
p353
(lp354
F0.00221
aF100.0
aF100.0
asVs274
p355
(lp356
F0.003105
aF1016600.0
aF1016600.0
asVs275
p357
(lp358
F0.007368
aF10000.0
aF10000.0
asVs272
p359
(lp360
F0.003121
aF32900.0
aF32900.0
asVs273
p361
(lp362
F0.002697
aF301.05
aF301.05
asVs271
p363
(lp364
F0.002225
aF16450.0
aF16450.0
asVs278
p365
(lp366
F0.003124
aF206.82
aF206.82
asVs279
p367
(lp368
F0.00312
aF208.48
aF208.48
asVs232
p369
(lp370
F0.00297
aF10000.0
aF10000.0
asVs261
p371
(lp372
F0.001995
aF22800.0
aF22800.0
asVs341
p373
(lp374
F0.001591
aF5.1874
aF5.1874
asVs231
p375
(lp376
F0.005497
aF18093.0
aF18093.0
asVs414
p377
(lp378
F0.007829
aF19131.0
aF19131.0
asVs234
p379
(lp380
F0.007832
aF18093.0
aF18093.0
asVs318
p381
(lp382
F0.002603
aF102.0
aF102.0
asVs342
p383
(lp384
F0.001569
aF5.1874
aF5.1874
asVs343
p385
(lp386
F0.004617
aF518.74
aF518.74
asVs432
p387
(lp388
F0.001339
aF16450.0
aF16450.0
asVs235
p389
(lp390
F0.006712
aF554110.0
aF554110.0
asVvpvtv
p391
(lp392
F0.001376
aF16450.0
aF16450.0
asVs123
p393
(lp394
F0.003163
aF103.25
aF103.25
asVs351
p395
(lp396
F0.003515
aF5000100.0
aF5000100.0
asVvpvts
p397
(lp398
F0.001345
aF16450.0
aF16450.0
asVvdotr
p399
(lp400
F0.001343
aF1.635
aF1.635
asVva
p401
(lp402
F0.000922
aF1.635
aF1.635
asVs121
p403
(lp404
F0.001336
aF105.18
aF105.18
asVs452
p405
(lp406
F0.001651
aF100.01
aF100.01
asVs126
p407
(lp408
F0.006412
aF10460.0
aF10460.0
asVs352
p409
(lp410
F0.003688
aF1.635
aF1.635
asVs2710
p411
(lp412
F0.003339
aF303.27
aF303.27
asVs2711
p413
(lp414
F0.002235
aF16450.0
aF16450.0
asVs2712
p415
(lp416
F0.002223
aF6449.8
aF6449.8
asVs127
p417
(lp418
F0.002027
aF103.25
aF103.25
asVs319
p419
(lp420
F0.00309
aF20.75
aF20.75
asVs152
p421
(lp422
F0.002072
aF12120.0
aF12120.0
asVs151
p423
(lp424
F0.00134
aF105.18
aF105.18
asVvpv
p425
(lp426
F0.001064
aF16350.0
aF16350.0
asVs2101
p427
(lp428
F0.007464
aF26350.0
aF26350.0
asVs124
p429
(lp430
F0.002529
aF51.625
aF51.625
asVs353
p431
(lp432
F0.01069
aF5000100.0
aF5000100.0
asVs2102
p433
(lp434
F0.003527
aF100.0
aF100.0
asVs311
p435
(lp436
F0.001642
aF5.1874
aF5.1874
asVs313
p437
(lp438
F0.00134
aF1.635
aF1.635
asVs312
p439
(lp440
F0.001636
aF1.0001
aF1.0001
asVs315
p441
(lp442
F0.002494
aF2.0
aF2.0
asVs314
p443
(lp444
F0.001786
aF1.0
aF1.0
asVs317
p445
(lp446
F0.00154
aF0.999
aF0.999
asVs316
p447
(lp448
F0.001196
aF0.01
aF0.01
asVs453
p449
(lp450
F0.001355
aF10.375
aF10.375
asVs119
p451
(lp452
F0.002215
aF13099.0
aF13099.0
asVs118
p453
(lp454
F0.002312
aF100.99
aF100.99
asVs423
p455
(lp456
F0.001329
aF100.64
aF100.64
asVs116
p457
(lp458
F0.002683
aF100.0
aF100.0
asVs115
p459
(lp460
F0.001871
aF99.013
aF99.013
asVs114
p461
(lp462
F0.003076
aF353.12
aF353.12
asVs221
p463
(lp464
F0.003451
aF611280.0
aF611280.0
asVs112
p465
(lp466
F0.001343
aF258.31
aF258.31
asVs111
p467
(lp468
F0.001418
aF100.41
aF100.41
asVs222
p469
(lp470
F0.003675
aF100.0
aF100.0
asVs451
p471
(lp472
F0.052104
aF104.22
aF104.22
asVs431
p473
(lp474
F0.001091
aF16450.0
aF16450.0
asVs4117
p475
(lp476
F0.001792
aF100.42
aF100.42
asVs424
p477
(lp478
F0.001326
aF103.25
aF103.25
asVvtvtv
p479
(lp480
F0.00149
aF100.0
aF100.0
asVs491
p481
(lp482
F0.004364
aF101.63
aF101.63
asVs321
p483
(lp484
F0.002882
aF100.0
aF100.0
asVs322
p485
(lp486
F0.004185
aF100.0
aF100.0
asVs323
p487
(lp488
F0.002618
aF439.15
aF439.15
asVs412
p489
(lp490
F0.001602
aF16450.0
aF16450.0
asVs413
p491
(lp492
F0.00264
aF16548.0
aF16548.0
asVs471
p493
(lp494
F7.8e-05
aF204.9
aF204.9
asVs2111
p495
(lp496
F0.004675
aF3.0
aF3.0
asVs442
p497
(lp498
F0.004388
aF16450.0
aF16450.0
asVvpvpv
p499
(lp500
F0.001511
aF1.635
aF1.635
asVs162
p501
(lp502
F0.001376
aF105.18
aF105.18
asVs291
p503
(lp504
F0.001783
aF100.0
aF100.0
asVs292
p505
(lp506
F0.002114
aF99.9
aF99.9
asVs293
p507
(lp508
F0.00093
aF100.0
aF100.0
asVs258
p509
(lp510
F0.003086
aF12.779
aF12.779
asVs3110
p511
(lp512
F0.002683
aF202.0
aF202.0
asVs3113
p513
(lp514
F0.001976
aF2.0
aF2.0
asVs3112
p515
(lp516
F0.001682
aF161.58
aF161.58
asVs211
p517
(lp518
F0.001934
aF191.55
aF191.55
asVs212
p519
(lp520
F0.002208
aF10005.0
aF10005.0
asVs141
p521
(lp522
F0.001646
aF25995.0
aF25995.0
asVs122
p523
(lp524
F0.001349
aF16450.0
aF16450.0
asVs251
p525
(lp526
F0.001818
aF104.35
aF104.35
asVs252
p527
(lp528
F0.00164
aF199.0
aF199.0
asVs253
p529
(lp530
F0.002682
aF999940.0
aF999940.0
asVs254
p531
(lp532
F0.001419
aF100.0
aF100.0
asVs255
p533
(lp534
F0.002056
aF99.9
aF99.9
asVs256
p535
(lp536
F0.005306
aF20100.0
aF20100.0
asVs125
p537
(lp538
F0.002907
aF20000.0
aF20000.0
asVs415
p539
(lp540
F0.001372
aF16447.0
aF16447.0
asVs422
p541
(lp542
F0.00135
aF52.293
aF52.293
asVvbor
p543
(lp544
F0.013658
aF180.04
aF180.04
asVs421
p545
(lp546
F0.001187
aF105.18
aF105.18
asVs257
p547
(lp548
F0.005036
aF20100.0
aF20100.0
assV1000
p549
(dp550
Vvif
p551
(lp552
F0.001365
aF1.6439
aF1.6439
asVs481
p553
(lp554
F0.002409
aF2643.9
aF2643.9
asVs113
p555
(lp556
F0.001102
aF1000.6
aF1000.6
asVs4116
p557
(lp558
F0.001511
aF0.75617
aF0.75617
asVs411
p559
(lp560
F0.001709
aF2643.9
aF2643.9
asVs4112
p561
(lp562
F0.001716
aF8485.5
aF8485.5
asVs4113
p563
(lp564
F0.003731
aF1001.6
aF1001.6
asVs332
p565
(lp566
F0.001311
aF1002.0
aF1002.0
asVs331
p567
(lp568
F0.00102
aF1000.0
aF1000.0
asVs131
p569
(lp570
F0.001442
aF1007.5
aF1007.5
asVs132
p571
(lp572
F0.001315
aF1000000.0
aF1000000.0
asVs171
p573
(lp574
F0.001312
aF2643.9
aF2643.9
asVs173
p575
(lp576
F0.001313
aF1001.6
aF1001.6
asVs172
p577
(lp578
F0.001438
aF2643.9
aF2643.9
asVs175
p579
(lp580
F0.001418
aF1007.5
aF1007.5
asVs174
p581
(lp582
F0.00132
aF1001.6
aF1001.6
asVs281
p583
(lp584
F0.002269
aF1000.0
aF1000.0
asVs176
p585
(lp586
F0.001039
aF1023.1
aF1023.1
asVs243
p587
(lp588
F0.003169
aF9467.9
aF9467.9
asVs242
p589
(lp590
F0.003532
aF1498500.0
aF1498500.0
asVs241
p591
(lp592
F0.003
aF2000.0
aF2000.0
asVs441
p593
(lp594
F0.003443
aF2643.9
aF2643.9
asVvag
p595
(lp596
F0.001444
aF1.6439
aF1.6439
asVs443
p597
(lp598
F0.002925
aF2643.9
aF2643.9
asVs244
p599
(lp600
F0.002782
aF2002.0
aF2002.0
asVs4114
p601
(lp602
F0.002357
aF1000.0
aF1000.0
asVs4115
p603
(lp604
F0.00172
aF1.0378
aF1.0378
asVvas
p605
(lp606
F0.003383
aF1.6439
aF1.6439
asVs161
p607
(lp608
F0.003176
aF2002.1
aF2002.1
asVs3111
p609
(lp610
F0.001737
aF7.4855
aF7.4855
asVs482
p611
(lp612
F0.002367
aF2643.9
aF2643.9
asVs4121
p613
(lp614
F0.001637
aF2643.9
aF2643.9
asVs233
p615
(lp616
F0.085375
aF9733400.0
aF9733400.0
asVvsumr
p617
(lp618
F0.001728
aF7.4855
aF7.4855
asVvtv
p619
(lp620
F0.001416
aF1000.0
aF1000.0
asVs128
p621
(lp622
F0.00218
aF2500.0
aF2500.0
asVs276
p623
(lp624
F0.003037
aF2643.9
aF2643.9
asVs277
p625
(lp626
F0.002209
aF1000.0
aF1000.0
asVs274
p627
(lp628
F0.003236
aF1003600.0
aF1003600.0
asVs275
p629
(lp630
F0.06289
aF1000000.0
aF1000000.0
asVs272
p631
(lp632
F0.003422
aF5287.9
aF5287.9
asVs273
p633
(lp634
F0.002863
aF3001.0
aF3001.0
asVs271
p635
(lp636
F0.002239
aF2643.9
aF2643.9
asVs278
p637
(lp638
F0.003445
aF2009.1
aF2009.1
asVs279
p639
(lp640
F0.003386
aF2010.8
aF2010.8
asVs232
p641
(lp642
F0.003389
aF1000000.0
aF1000000.0
asVs261
p643
(lp644
F0.002635
aF3289.5
aF3289.5
asVs341
p645
(lp646
F0.001576
aF7.4855
aF7.4855
asVs231
p647
(lp648
F0.039878
aF1821100.0
aF1821100.0
asVs414
p649
(lp650
F0.062072
aF1836100.0
aF1836100.0
asVs234
p651
(lp652
F0.062097
aF1821100.0
aF1821100.0
asVs318
p653
(lp654
F0.002607
aF1002.0
aF1002.0
asVs342
p655
(lp656
F0.001585
aF7.4855
aF7.4855
asVs343
p657
(lp658
F0.035274
aF7485.5
aF7485.5
asVs432
p659
(lp660
F0.00142
aF2643.9
aF2643.9
asVs235
p661
(lp662
F0.039976
aF2362800.0
aF2362800.0
asVvpvtv
p663
(lp664
F0.001634
aF2643.9
aF2643.9
asVs123
p665
(lp666
F0.003155
aF1003.3
aF1003.3
asVs351
p667
(lp668
F0.004833
aF5001000.0
aF5001000.0
asVvpvts
p669
(lp670
F0.001424
aF2643.9
aF2643.9
asVvdotr
p671
(lp672
F0.001444
aF1.6439
aF1.6439
asVva
p673
(lp674
F0.000936
aF1.6439
aF1.6439
asVs121
p675
(lp676
F0.001411
aF1007.5
aF1007.5
asVs452
p677
(lp678
F0.001689
aF1000.5
aF1000.5
asVs126
p679
(lp680
F0.039144
aF1006900.0
aF1006900.0
asVs352
p681
(lp682
F0.004462
aF1.6439
aF1.6439
asVs2710
p683
(lp684
F0.003388
aF3003.3
aF3003.3
asVs2711
p685
(lp686
F0.002234
aF2643.9
aF2643.9
asVs2712
p687
(lp688
F0.002229
aF1643.9
aF1643.9
asVs127
p689
(lp690
F0.002062
aF1003.3
aF1003.3
asVs319
p691
(lp692
F0.003097
aF29.942
aF29.942
asVs152
p693
(lp694
F0.002558
aF2202.1
aF2202.1
asVs151
p695
(lp696
F0.001411
aF1007.5
aF1007.5
asVvpv
p697
(lp698
F0.00122
aF1643.9
aF1643.9
asVs2101
p699
(lp700
F0.065303
aF1001600.0
aF1001600.0
asVs124
p701
(lp702
F0.002414
aF501.64
aF501.64
asVs353
p703
(lp704
F0.007566
aF5001000.0
aF5001000.0
asVs2102
p705
(lp706
F0.031617
aF1000.0
aF1000.0
asVs311
p707
(lp708
F0.001773
aF7.4855
aF7.4855
asVs313
p709
(lp710
F0.001432
aF1.6439
aF1.6439
asVs312
p711
(lp712
F0.001729
aF1.001
aF1.001
asVs315
p713
(lp714
F0.002626
aF2.0
aF2.0
asVs314
p715
(lp716
F0.001742
aF1.0
aF1.0
asVs317
p717
(lp718
F0.001739
aF0.99005
aF0.99005
asVs316
p719
(lp720
F0.001163
aF0.001
aF0.001
asVs453
p721
(lp722
F0.001323
aF14.971
aF14.971
asVs119
p723
(lp724
F0.002648
aF1321200.0
aF1321200.0
asVs118
p725
(lp726
F0.007147
aF1001.0
aF1001.0
asVs423
p727
(lp728
F0.00134
aF1000.7
aF1000.7
asVs116
p729
(lp730
F0.002769
aF1000.0
aF1000.0
asVs115
p731
(lp732
F0.001954
aF999.0
aF999.0
asVs114
p733
(lp734
F0.008553
aF3629.0
aF3629.0
asVs221
p735
(lp736
F0.003541
aF1145700.0
aF1145700.0
asVs112
p737
(lp738
F0.001429
aF2636.4
aF2636.4
asVs111
p739
(lp740
F0.00152
aF1000.4
aF1000.4
asVs222
p741
(lp742
F0.003712
aF1000.0
aF1000.0
asVs451
p743
(lp744
F0.052382
aF1006.5
aF1006.5
asVs431
p745
(lp746
F0.00122
aF2643.9
aF2643.9
asVs4117
p747
(lp748
F0.001829
aF1000.4
aF1000.4
asVs424
p749
(lp750
F0.001323
aF1026.3
aF1026.3
asVvtvtv
p751
(lp752
F0.001863
aF1000.0
aF1000.0
asVs491
p753
(lp754
F0.004195
aF1001.6
aF1001.6
asVs321
p755
(lp756
F0.003047
aF1000.0
aF1000.0
asVs322
p757
(lp758
F0.004358
aF1000.0
aF1000.0
asVs323
p759
(lp760
F0.002703
aF4551.7
aF4551.7
asVs412
p761
(lp762
F0.002018
aF2643.9
aF2643.9
asVs413
p763
(lp764
F0.003332
aF3643.6
aF3643.6
asVs471
p765
(lp766
F2.8e-05
aF2004.9
aF2004.9
asVs2111
p767
(lp768
F0.005029
aF3.0
aF3.0
asVs442
p769
(lp770
F0.004373
aF2643.9
aF2643.9
asVvpvpv
p771
(lp772
F0.001873
aF1.6439
aF1.6439
asVs162
p773
(lp774
F0.001603
aF1007.5
aF1007.5
asVs291
p775
(lp776
F0.001775
aF1000.0
aF1000.0
asVs292
p777
(lp778
F0.002167
aF999.0
aF999.0
asVs293
p779
(lp780
F0.000875
aF1000.0
aF1000.0
asVs258
p781
(lp782
F0.00335
aF17.375
aF17.375
asVs3110
p783
(lp784
F0.00266
aF2002.0
aF2002.0
asVs3113
p785
(lp786
F0.001752
aF2.0
aF2.0
asVs3112
p787
(lp788
F0.0018
aF1639.7
aF1639.7
asVs211
p789
(lp790
F0.002658
aF1987.0
aF1987.0
asVs212
p791
(lp792
F0.002717
aF2006.5
aF2006.5
asVs141
p793
(lp794
F0.01111
aF1001600.0
aF1001600.0
asVs122
p795
(lp796
F0.00143
aF2643.9
aF2643.9
asVs251
p797
(lp798
F0.002113
aF1004.4
aF1004.4
asVs252
p799
(lp800
F0.001718
aF1999.0
aF1999.0
asVs253
p801
(lp802
F0.002942
aF1002000.0
aF1002000.0
asVs254
p803
(lp804
F0.001423
aF1000.0
aF1000.0
asVs255
p805
(lp806
F0.002013
aF999.0
aF999.0
asVs256
p807
(lp808
F0.03588
aF2001000.0
aF2001000.0
asVs125
p809
(lp810
F0.00338
aF2000000.0
aF2000000.0
asVs415
p811
(lp812
F0.00165
aF2641.9
aF2641.9
asVs422
p813
(lp814
F0.001317
aF502.87
aF502.87
asVvbor
p815
(lp816
F0.014075
aF180.04
aF180.04
asVs421
p817
(lp818
F0.001347
aF1007.5
aF1007.5
asVs257
p819
(lp820
F0.035973
aF2001000.0
aF2001000.0
asssS'vec'
p821
(dp822
V10
p823
(dp824
Vvif
p825
(lp826
F0.001404
aF1.5498
aF1.5498
asVs481
p827
(lp828
F0.002099
aF154990.0
aF154990.0
asVs113
p829
(lp830
F0.001632
aF10.55
aF10.55
asVs4116
p831
(lp832
F0.001219
aF0.65398
aF0.65398
asVs411
p833
(lp834
F0.000751
aF154990.0
aF154990.0
asVs4112
p835
(lp836
F0.0011
aF292910.0
aF292910.0
asVs4113
p837
(lp838
F0.00157
aF11.55
aF11.55
asVs332
p839
(lp840
F0.000827
aF12.0
aF12.0
asVs331
p841
(lp842
F0.00119
aF10.0
aF10.0
asVs131
p843
(lp844
F0.000654
aF12.829
aF12.829
asVs132
p845
(lp846
F0.000882
aF100.96
aF100.96
asVs171
p847
(lp848
F0.000895
aF154990.0
aF154990.0
asVs173
p849
(lp850
F0.001059
aF11.464
aF11.464
asVs172
p851
(lp852
F0.001089
aF154990.0
aF154990.0
asVs175
p853
(lp854
F0.001089
aF12.829
aF12.829
asVs174
p855
(lp856
F0.001306
aF11.464
aF11.464
asVs281
p857
(lp858
F0.002426
aF10.0
aF10.0
asVs176
p859
(lp860
F0.00119
aF94864.0
aF94864.0
asVs243
p861
(lp862
F0.00207
aF703170.0
aF703170.0
asVs242
p863
(lp864
F0.00246
aF135.0
aF135.0
asVs241
p865
(lp866
F0.00187
aF20.0
aF20.0
asVs441
p867
(lp868
F0.003513
aF154990.0
aF154990.0
asVvag
p869
(lp870
F0.000851
aF1.5498
aF1.5498
asVs443
p871
(lp872
F0.002586
aF154990.0
aF154990.0
asVs244
p873
(lp874
F0.001581
aF21.9
aF21.9
asVs4114
p875
(lp876
F0.001535
aF10.64
aF10.64
asVs4115
p877
(lp878
F0.001251
aF0.94449
aF0.94449
asVvas
p879
(lp880
F0.00135
aF1.5498
aF1.5498
asVs161
p881
(lp882
F0.002837
aF21.88
aF21.88
asVs3111
p883
(lp884
F0.001208
aF2.929
aF2.929
asVs482
p885
(lp886
F0.001854
aF154990.0
aF154990.0
asVs4121
p887
(lp888
F0.002013
aF154990.0
aF154990.0
asVs233
p889
(lp890
F0.004664
aF318.99
aF318.99
asVvsumr
p891
(lp892
F0.000795
aF2.929
aF2.929
asVvtv
p893
(lp894
F0.001566
aF10.0
aF10.0
asVs128
p895
(lp896
F0.001144
aF25.0
aF25.0
asVs276
p897
(lp898
F0.002808
aF154990.0
aF154990.0
asVs277
p899
(lp900
F0.001662
aF10.0
aF10.0
asVs274
p901
(lp902
F0.002772
aF1155000.0
aF1155000.0
asVs275
p903
(lp904
F0.003386
aF100.0
aF100.0
asVs272
p905
(lp906
F0.002797
aF309970.0
aF309970.0
asVs273
p907
(lp908
F0.002332
aF31.308
aF31.308
asVs271
p909
(lp910
F0.001849
aF154990.0
aF154990.0
asVs278
p911
(lp912
F0.002755
aF24.479
aF24.479
asVs279
p913
(lp914
F0.002753
aF25.777
aF25.777
asVs232
p915
(lp916
F0.001732
aF100.0
aF100.0
asVs261
p917
(lp918
F0.00148
aF208970.0
aF208970.0
asVs341
p919
(lp920
F0.001187
aF2.929
aF2.929
asVs231
p921
(lp922
F0.002737
aF169.74
aF169.74
asVs414
p923
(lp924
F0.003573
aF228.32
aF228.32
asVs234
p925
(lp926
F0.003694
aF169.74
aF169.74
asVs318
p927
(lp928
F0.001804
aF12.0
aF12.0
asVs342
p929
(lp930
F0.001185
aF2.929
aF2.929
asVs343
p931
(lp932
F0.001919
aF29.29
aF29.29
asVs432
p933
(lp934
F0.001578
aF154990.0
aF154990.0
asVs235
p935
(lp936
F0.003745
aF502590.0
aF502590.0
asVvpvtv
p937
(lp938
F0.000991
aF154990.0
aF154990.0
asVs123
p939
(lp940
F0.002644
aF12.927
aF12.927
asVs351
p941
(lp942
F0.008103
aF5000000.0
aF5000000.0
asVvpvts
p943
(lp944
F0.001653
aF154990.0
aF154990.0
asVvdotr
p945
(lp946
F0.000827
aF1.5498
aF1.5498
asVva
p947
(lp948
F0.002142
aF1.5498
aF1.5498
asVs121
p949
(lp950
F0.000675
aF12.829
aF12.829
asVs452
p951
(lp952
F0.001273
aF10.0
aF10.0
asVs126
p953
(lp954
F0.00369
aF122.58
aF122.58
asVs352
p955
(lp956
F0.002754
aF1.5498
aF1.5498
asVs2710
p957
(lp958
F0.00312
aF33.1
aF33.1
asVs2711
p959
(lp960
F0.001839
aF154990.0
aF154990.0
asVs2712
p961
(lp962
F0.00184
aF54987.0
aF54987.0
asVs127
p963
(lp964
F0.002208
aF12.927
aF12.927
asVs319
p965
(lp966
F0.002231
aF11.716
aF11.716
asVs152
p967
(lp968
F0.002708
aF119760.0
aF119760.0
asVs151
p969
(lp970
F0.000686
aF12.829
aF12.829
asVvpv
p971
(lp972
F0.001586
aF154980.0
aF154980.0
asVs2101
p973
(lp974
F0.001098
aF155080.0
aF155080.0
asVs124
p975
(lp976
F0.002021
aF6.4636
aF6.4636
asVs353
p977
(lp978
F0.004614
aF5000000.0
aF5000000.0
asVs2102
p979
(lp980
F0.000906
aF10.0
aF10.0
asVs311
p981
(lp982
F0.000785
aF2.929
aF2.929
asVs313
p983
(lp984
F0.000794
aF1.5498
aF1.5498
asVs312
p985
(lp986
F0.000795
aF1.0
aF1.0
asVs315
p987
(lp988
F0.001175
aF2.0
aF2.0
asVs314
p989
(lp990
F0.001403
aF1.0
aF1.0
asVs317
p991
(lp992
F0.000739
aF0.9999
aF0.9999
asVs316
p993
(lp994
F0.001069
aF0.1
aF0.1
asVs453
p995
(lp996
F0.001201
aF5.8579
aF5.8579
asVs119
p997
(lp998
F0.001059
aF122.58
aF122.58
asVs118
p999
(lp1000
F0.001852
aF10.924
aF10.924
asVs423
p1001
(lp1002
F0.000764
aF10.54
aF10.54
asVs116
p1003
(lp1004
F0.000265
aF10.0
aF10.0
asVs115
p1005
(lp1006
F0.002953
aF9.1237
aF9.1237
asVs114
p1007
(lp1008
F0.001824
aF29.64
aF29.64
asVs221
p1009
(lp1010
F0.002195
aF466900.0
aF466900.0
asVs112
p1011
(lp1012
F0.001054
aF22.569
aF22.569
asVs111
p1013
(lp1014
F0.001063
aF10.366
aF10.366
asVs222
p1015
(lp1016
F0.002394
aF10.0
aF10.0
asVs451
p1017
(lp1018
F0.068545
aF12.007
aF12.007
asVs431
p1019
(lp1020
F0.001577
aF154990.0
aF154990.0
asVs4117
p1021
(lp1022
F0.001273
aF10.241
aF10.241
asVs424
p1023
(lp1024
F0.000741
aF10.54
aF10.54
asVvtvtv
p1025
(lp1026
F0.001132
aF10.0
aF10.0
asVs491
p1027
(lp1028
F0.00184
aF11.55
aF11.55
asVs321
p1029
(lp1030
F0.001241
aF10.0
aF10.0
asVs322
p1031
(lp1032
F0.00207
aF10.0
aF10.0
asVs323
p1033
(lp1034
F0.001568
aF35.924
aF35.924
asVs412
p1035
(lp1036
F0.001352
aF154990.0
aF154990.0
asVs413
p1037
(lp1038
F0.001691
aF154000.0
aF154000.0
asVs471
p1039
(lp1040
F-3e-05
aF24.649
aF24.649
asVs2111
p1041
(lp1042
F0.002568
aF3.0
aF3.0
asVs442
p1043
(lp1044
F0.004621
aF154990.0
aF154990.0
asVvpvpv
p1045
(lp1046
F0.001152
aF1.5498
aF1.5498
asVs162
p1047
(lp1048
F0.001315
aF12.829
aF12.829
asVs291
p1049
(lp1050
F0.001393
aF10.0
aF10.0
asVs292
p1051
(lp1052
F0.001753
aF9.99
aF9.99
asVs293
p1053
(lp1054
F0.000967
aF10.0
aF10.0
asVs258
p1055
(lp1056
F0.002766
aF8.253
aF8.253
asVs3110
p1057
(lp1058
F0.002574
aF22.0
aF22.0
asVs3113
p1059
(lp1060
F0.00161
aF2.0
aF2.0
asVs3112
p1061
(lp1062
F0.001187
aF15.668
aF15.668
asVs211
p1063
(lp1064
F0.001265
aF15.974
aF15.974
asVs212
p1065
(lp1066
F0.001537
aF90013.0
aF90013.0
asVs141
p1067
(lp1068
F0.001462
aF141280.0
aF141280.0
asVs122
p1069
(lp1070
F0.001262
aF154990.0
aF154990.0
asVs251
p1071
(lp1072
F0.001305
aF14.182
aF14.182
asVs252
p1073
(lp1074
F0.001283
aF19.0
aF19.0
asVs253
p1075
(lp1076
F0.002373
aF985370.0
aF985370.0
asVs254
p1077
(lp1078
F0.001025
aF10.0
aF10.0
asVs255
p1079
(lp1080
F0.001795
aF9.99
aF9.99
asVs256
p1081
(lp1082
F0.001937
aF210.0
aF210.0
asVs125
p1083
(lp1084
F0.002013
aF200.0
aF200.0
asVs415
p1085
(lp1086
F0.001013
aF153980.0
aF153980.0
asVs422
p1087
(lp1088
F0.000881
aF6.6983
aF6.6983
asVvbor
p1089
(lp1090
F0.010307
aF180.04
aF180.04
asVs421
p1091
(lp1092
F0.000697
aF12.829
aF12.829
asVs257
p1093
(lp1094
F0.001522
aF210.0
aF210.0
assV100
p1095
(dp1096
Vvif
p1097
(lp1098
F0.001274
aF1.635
aF1.635
asVs481
p1099
(lp1100
F0.002247
aF16450.0
aF16450.0
asVs113
p1101
(lp1102
F0.000657
aF100.63
aF100.63
asVs4116
p1103
(lp1104
F0.0014
aF0.74717
aF0.74717
asVs411
p1105
(lp1106
F0.000863
aF16450.0
aF16450.0
asVs4112
p1107
(lp1108
F0.001223
aF51974.0
aF51974.0
asVs4113
p1109
(lp1110
F0.001804
aF101.63
aF101.63
asVs332
p1111
(lp1112
F0.001156
aF102.0
aF102.0
asVs331
p1113
(lp1114
F0.001364
aF100.0
aF100.0
asVs131
p1115
(lp1116
F0.000782
aF105.18
aF105.18
asVs132
p1117
(lp1118
F0.000714
aF10002.0
aF10002.0
asVs171
p1119
(lp1120
F0.000968
aF16450.0
aF16450.0
asVs173
p1121
(lp1122
F0.000793
aF101.63
aF101.63
asVs172
p1123
(lp1124
F0.000974
aF16450.0
aF16450.0
asVs175
p1125
(lp1126
F0.001347
aF105.18
aF105.18
asVs174
p1127
(lp1128
F0.000842
aF101.63
aF101.63
asVs281
p1129
(lp1130
F0.001915
aF100.0
aF100.0
asVs176
p1131
(lp1132
F0.00099
aF1756.3
aF1756.3
asVs243
p1133
(lp1134
F0.002081
aF74453.0
aF74453.0
asVs242
p1135
(lp1136
F0.003483
aF14850.0
aF14850.0
asVs241
p1137
(lp1138
F0.002595
aF200.0
aF200.0
asVs441
p1139
(lp1140
F0.003624
aF16450.0
aF16450.0
asVvag
p1141
(lp1142
F0.000948
aF1.635
aF1.635
asVs443
p1143
(lp1144
F0.002907
aF16450.0
aF16450.0
asVs244
p1145
(lp1146
F0.002094
aF201.99
aF201.99
asVs4114
p1147
(lp1148
F0.001454
aF100.1
aF100.1
asVs4115
p1149
(lp1150
F0.001412
aF1.0289
aF1.0289
asVvas
p1151
(lp1152
F0.00176
aF1.635
aF1.635
asVs161
p1153
(lp1154
F0.003282
aF202.04
aF202.04
asVs3111
p1155
(lp1156
F0.001734
aF5.1874
aF5.1874
asVs482
p1157
(lp1158
F0.002213
aF16450.0
aF16450.0
asVs4121
p1159
(lp1160
F0.000882
aF16450.0
aF16450.0
asVs233
p1161
(lp1162
F0.011369
aF63220.0
aF63220.0
asVvsumr
p1163
(lp1164
F0.001642
aF5.1874
aF5.1874
asVvtv
p1165
(lp1166
F0.000748
aF100.0
aF100.0
asVs128
p1167
(lp1168
F0.001655
aF250.0
aF250.0
asVs276
p1169
(lp1170
F0.00275
aF16450.0
aF16450.0
asVs277
p1171
(lp1172
F0.002215
aF100.0
aF100.0
asVs274
p1173
(lp1174
F0.003115
aF1016600.0
aF1016600.0
asVs275
p1175
(lp1176
F0.007456
aF10000.0
aF10000.0
asVs272
p1177
(lp1178
F0.003121
aF32900.0
aF32900.0
asVs273
p1179
(lp1180
F0.002698
aF301.05
aF301.05
asVs271
p1181
(lp1182
F0.002213
aF16450.0
aF16450.0
asVs278
p1183
(lp1184
F0.003124
aF206.82
aF206.82
asVs279
p1185
(lp1186
F0.003136
aF208.48
aF208.48
asVs232
p1187
(lp1188
F0.003
aF10000.0
aF10000.0
asVs261
p1189
(lp1190
F0.002007
aF22800.0
aF22800.0
asVs341
p1191
(lp1192
F0.00156
aF5.1874
aF5.1874
asVs231
p1193
(lp1194
F0.005505
aF18093.0
aF18093.0
asVs414
p1195
(lp1196
F0.007909
aF19131.0
aF19131.0
asVs234
p1197
(lp1198
F0.00788
aF18093.0
aF18093.0
asVs318
p1199
(lp1200
F0.002594
aF102.0
aF102.0
asVs342
p1201
(lp1202
F0.001573
aF5.1874
aF5.1874
asVs343
p1203
(lp1204
F0.004636
aF518.74
aF518.74
asVs432
p1205
(lp1206
F0.000749
aF16450.0
aF16450.0
asVs235
p1207
(lp1208
F0.006654
aF554110.0
aF554110.0
asVvpvtv
p1209
(lp1210
F0.000896
aF16450.0
aF16450.0
asVs123
p1211
(lp1212
F0.003164
aF103.25
aF103.25
asVs351
p1213
(lp1214
F0.006304
aF5000100.0
aF5000100.0
asVvpvts
p1215
(lp1216
F0.000753
aF16450.0
aF16450.0
asVvdotr
p1217
(lp1218
F0.00135
aF1.635
aF1.635
asVva
p1219
(lp1220
F0.000527
aF1.635
aF1.635
asVs121
p1221
(lp1222
F0.000757
aF105.18
aF105.18
asVs452
p1223
(lp1224
F0.001127
aF100.01
aF100.01
asVs126
p1225
(lp1226
F0.006431
aF10460.0
aF10460.0
asVs352
p1227
(lp1228
F0.003687
aF1.635
aF1.635
asVs2710
p1229
(lp1230
F0.003324
aF303.27
aF303.27
asVs2711
p1231
(lp1232
F0.002225
aF16450.0
aF16450.0
asVs2712
p1233
(lp1234
F0.002234
aF6449.8
aF6449.8
asVs127
p1235
(lp1236
F0.001749
aF103.25
aF103.25
asVs319
p1237
(lp1238
F0.003084
aF20.75
aF20.75
asVs152
p1239
(lp1240
F0.001793
aF12120.0
aF12120.0
asVs151
p1241
(lp1242
F0.000769
aF105.18
aF105.18
asVvpv
p1243
(lp1244
F0.000748
aF16350.0
aF16350.0
asVs2101
p1245
(lp1246
F0.012881
aF26350.0
aF26350.0
asVs124
p1247
(lp1248
F0.002504
aF51.625
aF51.625
asVs353
p1249
(lp1250
F0.005645
aF5000100.0
aF5000100.0
asVs2102
p1251
(lp1252
F0.003507
aF100.0
aF100.0
asVs311
p1253
(lp1254
F0.00163
aF5.1874
aF5.1874
asVs313
p1255
(lp1256
F0.00134
aF1.635
aF1.635
asVs312
p1257
(lp1258
F0.001638
aF1.0001
aF1.0001
asVs315
p1259
(lp1260
F0.002483
aF2.0
aF2.0
asVs314
p1261
(lp1262
F0.001776
aF1.0
aF1.0
asVs317
p1263
(lp1264
F0.001538
aF0.999
aF0.999
asVs316
p1265
(lp1266
F0.001361
aF0.01
aF0.01
asVs453
p1267
(lp1268
F0.001344
aF10.375
aF10.375
asVs119
p1269
(lp1270
F0.001315
aF13099.0
aF13099.0
asVs118
p1271
(lp1272
F0.00235
aF100.99
aF100.99
asVs423
p1273
(lp1274
F0.000766
aF100.64
aF100.64
asVs116
p1275
(lp1276
F0.002691
aF100.0
aF100.0
asVs115
p1277
(lp1278
F0.001502
aF99.013
aF99.013
asVs114
p1279
(lp1280
F0.00306
aF353.12
aF353.12
asVs221
p1281
(lp1282
F0.003473
aF611280.0
aF611280.0
asVs112
p1283
(lp1284
F0.001349
aF258.31
aF258.31
asVs111
p1285
(lp1286
F0.000902
aF100.41
aF100.41
asVs222
p1287
(lp1288
F0.003653
aF100.0
aF100.0
asVs451
p1289
(lp1290
F0.060917
aF104.22
aF104.22
asVs431
p1291
(lp1292
F0.000748
aF16450.0
aF16450.0
asVs4117
p1293
(lp1294
F0.001398
aF100.42
aF100.42
asVs424
p1295
(lp1296
F0.00077
aF103.25
aF103.25
asVvtvtv
p1297
(lp1298
F0.000979
aF100.0
aF100.0
asVs491
p1299
(lp1300
F0.002218
aF101.63
aF101.63
asVs321
p1301
(lp1302
F0.002856
aF100.0
aF100.0
asVs322
p1303
(lp1304
F0.004177
aF100.0
aF100.0
asVs323
p1305
(lp1306
F0.002651
aF439.15
aF439.15
asVs412
p1307
(lp1308
F0.001601
aF16450.0
aF16450.0
asVs413
p1309
(lp1310
F0.002066
aF16548.0
aF16548.0
asVs471
p1311
(lp1312
F4.9e-05
aF204.9
aF204.9
asVs2111
p1313
(lp1314
F0.004785
aF3.0
aF3.0
asVs442
p1315
(lp1316
F0.004838
aF16450.0
aF16450.0
asVvpvpv
p1317
(lp1318
F0.000978
aF1.635
aF1.635
asVs162
p1319
(lp1320
F0.001409
aF105.18
aF105.18
asVs291
p1321
(lp1322
F0.00181
aF100.0
aF100.0
asVs292
p1323
(lp1324
F0.002097
aF99.9
aF99.9
asVs293
p1325
(lp1326
F0.000952
aF100.0
aF100.0
asVs258
p1327
(lp1328
F0.003053
aF12.779
aF12.779
asVs3110
p1329
(lp1330
F0.002684
aF202.0
aF202.0
asVs3113
p1331
(lp1332
F0.001884
aF2.0
aF2.0
asVs3112
p1333
(lp1334
F0.001682
aF161.58
aF161.58
asVs211
p1335
(lp1336
F0.001924
aF191.55
aF191.55
asVs212
p1337
(lp1338
F0.002209
aF10005.0
aF10005.0
asVs141
p1339
(lp1340
F0.001586
aF25995.0
aF25995.0
asVs122
p1341
(lp1342
F0.001196
aF16450.0
aF16450.0
asVs251
p1343
(lp1344
F0.001157
aF104.35
aF104.35
asVs252
p1345
(lp1346
F0.001087
aF199.0
aF199.0
asVs253
p1347
(lp1348
F0.002681
aF999940.0
aF999940.0
asVs254
p1349
(lp1350
F0.001419
aF100.0
aF100.0
asVs255
p1351
(lp1352
F0.002078
aF99.9
aF99.9
asVs256
p1353
(lp1354
F0.005298
aF20100.0
aF20100.0
asVs125
p1355
(lp1356
F0.001774
aF20000.0
aF20000.0
asVs415
p1357
(lp1358
F0.001375
aF16447.0
aF16447.0
asVs422
p1359
(lp1360
F0.000748
aF52.293
aF52.293
asVvbor
p1361
(lp1362
F0.010427
aF180.04
aF180.04
asVs421
p1363
(lp1364
F0.000761
aF105.18
aF105.18
asVs257
p1365
(lp1366
F0.00499
aF20100.0
aF20100.0
assV1000
p1367
(dp1368
Vvif
p1369
(lp1370
F0.001426
aF1.6439
aF1.6439
asVs481
p1371
(lp1372
F0.002358
aF2643.9
aF2643.9
asVs113
p1373
(lp1374
F0.000775
aF1000.6
aF1000.6
asVs4116
p1375
(lp1376
F0.001387
aF0.75617
aF0.75617
asVs411
p1377
(lp1378
F0.001192
aF2643.9
aF2643.9
asVs4112
p1379
(lp1380
F0.001313
aF8485.5
aF8485.5
asVs4113
p1381
(lp1382
F0.001833
aF1001.6
aF1001.6
asVs332
p1383
(lp1384
F0.001127
aF1002.0
aF1002.0
asVs331
p1385
(lp1386
F0.00131
aF1000.0
aF1000.0
asVs131
p1387
(lp1388
F0.000887
aF1007.5
aF1007.5
asVs132
p1389
(lp1390
F0.001159
aF1000000.0
aF1000000.0
asVs171
p1391
(lp1392
F0.001011
aF2643.9
aF2643.9
asVs173
p1393
(lp1394
F0.000782
aF1001.6
aF1001.6
asVs172
p1395
(lp1396
F0.001121
aF2643.9
aF2643.9
asVs175
p1397
(lp1398
F0.001417
aF1007.5
aF1007.5
asVs174
p1399
(lp1400
F0.000791
aF1001.6
aF1001.6
asVs281
p1401
(lp1402
F0.00219
aF1000.0
aF1000.0
asVs176
p1403
(lp1404
F0.000783
aF1023.1
aF1023.1
asVs243
p1405
(lp1406
F0.002674
aF9467.9
aF9467.9
asVs242
p1407
(lp1408
F0.003787
aF1498500.0
aF1498500.0
asVs241
p1409
(lp1410
F0.002873
aF2000.0
aF2000.0
asVs441
p1411
(lp1412
F0.003451
aF2643.9
aF2643.9
asVvag
p1413
(lp1414
F0.001007
aF1.6439
aF1.6439
asVs443
p1415
(lp1416
F0.002883
aF2643.9
aF2643.9
asVs244
p1417
(lp1418
F0.0027
aF2002.0
aF2002.0
asVs4114
p1419
(lp1420
F0.002018
aF1000.0
aF1000.0
asVs4115
p1421
(lp1422
F0.001598
aF1.0378
aF1.0378
asVvas
p1423
(lp1424
F0.001806
aF1.6439
aF1.6439
asVs161
p1425
(lp1426
F0.003232
aF2002.1
aF2002.1
asVs3111
p1427
(lp1428
F0.001737
aF7.4855
aF7.4855
asVs482
p1429
(lp1430
F0.002312
aF2643.9
aF2643.9
asVs4121
p1431
(lp1432
F0.001183
aF2643.9
aF2643.9
asVs233
p1433
(lp1434
F0.085183
aF9733400.0
aF9733400.0
asVvsumr
p1435
(lp1436
F0.00174
aF7.4855
aF7.4855
asVvtv
p1437
(lp1438
F0.000945
aF1000.0
aF1000.0
asVs128
p1439
(lp1440
F0.00234
aF2500.0
aF2500.0
asVs276
p1441
(lp1442
F0.00297
aF2643.9
aF2643.9
asVs277
p1443
(lp1444
F0.002191
aF1000.0
aF1000.0
asVs274
p1445
(lp1446
F0.003231
aF1003600.0
aF1003600.0
asVs275
p1447
(lp1448
F0.062782
aF1000000.0
aF1000000.0
asVs272
p1449
(lp1450
F0.003405
aF5287.9
aF5287.9
asVs273
p1451
(lp1452
F0.002984
aF3001.0
aF3001.0
asVs271
p1453
(lp1454
F0.002204
aF2643.9
aF2643.9
asVs278
p1455
(lp1456
F0.003499
aF2009.1
aF2009.1
asVs279
p1457
(lp1458
F0.003362
aF2010.8
aF2010.8
asVs232
p1459
(lp1460
F0.003391
aF1000000.0
aF1000000.0
asVs261
p1461
(lp1462
F0.002544
aF3289.5
aF3289.5
asVs341
p1463
(lp1464
F0.001562
aF7.4855
aF7.4855
asVs231
p1465
(lp1466
F0.039725
aF1821100.0
aF1821100.0
asVs414
p1467
(lp1468
F0.061936
aF1836100.0
aF1836100.0
asVs234
p1469
(lp1470
F0.061934
aF1821100.0
aF1821100.0
asVs318
p1471
(lp1472
F0.002606
aF1002.0
aF1002.0
asVs342
p1473
(lp1474
F0.001588
aF7.4855
aF7.4855
asVs343
p1475
(lp1476
F0.035111
aF7485.5
aF7485.5
asVs432
p1477
(lp1478
F0.000948
aF2643.9
aF2643.9
asVs235
p1479
(lp1480
F0.039899
aF2362800.0
aF2362800.0
asVvpvtv
p1481
(lp1482
F0.001178
aF2643.9
aF2643.9
asVs123
p1483
(lp1484
F0.003302
aF1003.3
aF1003.3
asVs351
p1485
(lp1486
F0.007443
aF5001000.0
aF5001000.0
asVvpvts
p1487
(lp1488
F0.000978
aF2643.9
aF2643.9
asVvdotr
p1489
(lp1490
F0.00142
aF1.6439
aF1.6439
asVva
p1491
(lp1492
F0.000561
aF1.6439
aF1.6439
asVs121
p1493
(lp1494
F0.001009
aF1007.5
aF1007.5
asVs452
p1495
(lp1496
F0.001289
aF1000.5
aF1000.5
asVs126
p1497
(lp1498
F0.03878
aF1006900.0
aF1006900.0
asVs352
p1499
(lp1500
F0.004467
aF1.6439
aF1.6439
asVs2710
p1501
(lp1502
F0.003451
aF3003.3
aF3003.3
asVs2711
p1503
(lp1504
F0.002203
aF2643.9
aF2643.9
asVs2712
p1505
(lp1506
F0.002233
aF1643.9
aF1643.9
asVs127
p1507
(lp1508
F0.002207
aF1003.3
aF1003.3
asVs319
p1509
(lp1510
F0.003151
aF29.942
aF29.942
asVs152
p1511
(lp1512
F0.00224
aF2202.1
aF2202.1
asVs151
p1513
(lp1514
F0.000998
aF1007.5
aF1007.5
asVvpv
p1515
(lp1516
F0.000935
aF1643.9
aF1643.9
asVs2101
p1517
(lp1518
F0.063671
aF1001600.0
aF1001600.0
asVs124
p1519
(lp1520
F0.002436
aF501.64
aF501.64
asVs353
p1521
(lp1522
F0.006579
aF5001000.0
aF5001000.0
asVs2102
p1523
(lp1524
F0.031967
aF1000.0
aF1000.0
asVs311
p1525
(lp1526
F0.001729
aF7.4855
aF7.4855
asVs313
p1527
(lp1528
F0.001421
aF1.6439
aF1.6439
asVs312
p1529
(lp1530
F0.001745
aF1.001
aF1.001
asVs315
p1531
(lp1532
F0.002608
aF2.0
aF2.0
asVs314
p1533
(lp1534
F0.001756
aF1.0
aF1.0
asVs317
p1535
(lp1536
F0.001747
aF0.99005
aF0.99005
asVs316
p1537
(lp1538
F0.001307
aF0.001
aF0.001
asVs453
p1539
(lp1540
F0.001318
aF14.971
aF14.971
asVs119
p1541
(lp1542
F0.002588
aF1321200.0
aF1321200.0
asVs118
p1543
(lp1544
F0.007209
aF1001.0
aF1001.0
asVs423
p1545
(lp1546
F0.00082
aF1000.7
aF1000.7
asVs116
p1547
(lp1548
F0.002769
aF1000.0
aF1000.0
asVs115
p1549
(lp1550
F0.001607
aF999.0
aF999.0
asVs114
p1551
(lp1552
F0.00863
aF3629.0
aF3629.0
asVs221
p1553
(lp1554
F0.003544
aF1145700.0
aF1145700.0
asVs112
p1555
(lp1556
F0.001437
aF2636.4
aF2636.4
asVs111
p1557
(lp1558
F0.001275
aF1000.4
aF1000.4
asVs222
p1559
(lp1560
F0.003716
aF1000.0
aF1000.0
asVs451
p1561
(lp1562
F0.061113
aF1006.5
aF1006.5
asVs431
p1563
(lp1564
F0.000936
aF2643.9
aF2643.9
asVs4117
p1565
(lp1566
F0.001649
aF1000.4
aF1000.4
asVs424
p1567
(lp1568
F0.000817
aF1026.3
aF1026.3
asVvtvtv
p1569
(lp1570
F0.001246
aF1000.0
aF1000.0
asVs491
p1571
(lp1572
F0.002274
aF1001.6
aF1001.6
asVs321
p1573
(lp1574
F0.003081
aF1000.0
aF1000.0
asVs322
p1575
(lp1576
F0.004368
aF1000.0
aF1000.0
asVs323
p1577
(lp1578
F0.003122
aF4551.7
aF4551.7
asVs412
p1579
(lp1580
F0.001994
aF2643.9
aF2643.9
asVs413
p1581
(lp1582
F0.00267
aF3643.6
aF3643.6
asVs471
p1583
(lp1584
F3.2e-05
aF2004.9
aF2004.9
asVs2111
p1585
(lp1586
F0.005006
aF3.0
aF3.0
asVs442
p1587
(lp1588
F0.004856
aF2643.9
aF2643.9
asVvpvpv
p1589
(lp1590
F0.001247
aF1.6439
aF1.6439
asVs162
p1591
(lp1592
F0.00174
aF1007.5
aF1007.5
asVs291
p1593
(lp1594
F0.001772
aF1000.0
aF1000.0
asVs292
p1595
(lp1596
F0.002177
aF999.0
aF999.0
asVs293
p1597
(lp1598
F0.000877
aF1000.0
aF1000.0
asVs258
p1599
(lp1600
F0.003318
aF17.375
aF17.375
asVs3110
p1601
(lp1602
F0.002673
aF2002.0
aF2002.0
asVs3113
p1603
(lp1604
F0.001752
aF2.0
aF2.0
asVs3112
p1605
(lp1606
F0.001766
aF1639.7
aF1639.7
asVs211
p1607
(lp1608
F0.002605
aF1987.0
aF1987.0
asVs212
p1609
(lp1610
F0.002723
aF2006.5
aF2006.5
asVs141
p1611
(lp1612
F0.011105
aF1001600.0
aF1001600.0
asVs122
p1613
(lp1614
F0.001292
aF2643.9
aF2643.9
asVs251
p1615
(lp1616
F0.001771
aF1004.4
aF1004.4
asVs252
p1617
(lp1618
F0.001313
aF1999.0
aF1999.0
asVs253
p1619
(lp1620
F0.002792
aF1002000.0
aF1002000.0
asVs254
p1621
(lp1622
F0.001413
aF1000.0
aF1000.0
asVs255
p1623
(lp1624
F0.002035
aF999.0
aF999.0
asVs256
p1625
(lp1626
F0.035791
aF2001000.0
aF2001000.0
asVs125
p1627
(lp1628
F0.00328
aF2000000.0
aF2000000.0
asVs415
p1629
(lp1630
F0.001666
aF2641.9
aF2641.9
asVs422
p1631
(lp1632
F0.000857
aF502.87
aF502.87
asVvbor
p1633
(lp1634
F0.010686
aF180.04
aF180.04
asVs421
p1635
(lp1636
F0.00077
aF1007.5
aF1007.5
asVs257
p1637
(lp1638
F0.035798
aF2001000.0
aF2001000.0
assss.