(dp0
S'nosve'
p1
(dp2
S'novec'
p3
(dp4
V10
p5
(dp6
Vvif
p7
(lp8
F0.00122
aF1.5498
aF1.5498
asVs481
p9
(lp10
F0.002143
aF154990.0
aF154990.0
asVs113
p11
(lp12
F0.000773
aF10.55
aF10.55
asVs4116
p13
(lp14
F0.001252
aF0.65398
aF0.65398
asVs411
p15
(lp16
F0.001174
aF154990.0
aF154990.0
asVs4112
p17
(lp18
F0.001217
aF292910.0
aF292910.0
asVs4113
p19
(lp20
F0.003046
aF11.55
aF11.55
asVs332
p21
(lp22
F0.001309
aF12.0
aF12.0
asVs331
p23
(lp24
F0.000817
aF10.0
aF10.0
asVs131
p25
(lp26
F0.001079
aF12.829
aF12.829
asVs132
p27
(lp28
F0.00109
aF100.96
aF100.96
asVs171
p29
(lp30
F0.001045
aF154990.0
aF154990.0
asVs173
p31
(lp32
F0.001123
aF11.464
aF11.464
asVs172
p33
(lp34
F0.001295
aF154990.0
aF154990.0
asVs175
p35
(lp36
F0.00112
aF12.829
aF12.829
asVs174
p37
(lp38
F0.00113
aF11.464
aF11.464
asVs281
p39
(lp40
F0.001905
aF10.0
aF10.0
asVs176
p41
(lp42
F0.001591
aF94864.0
aF94864.0
asVs243
p43
(lp44
F0.002014
aF703170.0
aF703170.0
asVs242
p45
(lp46
F0.002495
aF135.0
aF135.0
asVs241
p47
(lp48
F0.001908
aF20.0
aF20.0
asVs441
p49
(lp50
F0.003568
aF154990.0
aF154990.0
asVvag
p51
(lp52
F0.001174
aF1.5498
aF1.5498
asVs443
p53
(lp54
F0.002611
aF154990.0
aF154990.0
asVs244
p55
(lp56
F0.001614
aF21.9
aF21.9
asVs4114
p57
(lp58
F0.001685
aF10.64
aF10.64
asVs4115
p59
(lp60
F0.001098
aF0.94449
aF0.94449
asVvas
p61
(lp62
F0.002611
aF1.5498
aF1.5498
asVs161
p63
(lp64
F0.00286
aF21.88
aF21.88
asVs3111
p65
(lp66
F0.001229
aF2.929
aF2.929
asVs482
p67
(lp68
F0.001873
aF154990.0
aF154990.0
asVs4121
p69
(lp70
F0.001037
aF154990.0
aF154990.0
asVs233
p71
(lp72
F0.004673
aF318.99
aF318.99
asVvsumr
p73
(lp74
F0.000827
aF2.929
aF2.929
asVvtv
p75
(lp76
F0.001185
aF10.0
aF10.0
asVs128
p77
(lp78
F0.001209
aF25.0
aF25.0
asVs276
p79
(lp80
F0.002925
aF154990.0
aF154990.0
asVs277
p81
(lp82
F0.001859
aF10.0
aF10.0
asVs274
p83
(lp84
F0.002795
aF1155000.0
aF1155000.0
asVs275
p85
(lp86
F0.003406
aF100.0
aF100.0
asVs272
p87
(lp88
F0.00283
aF309970.0
aF309970.0
asVs273
p89
(lp90
F0.002524
aF31.308
aF31.308
asVs271
p91
(lp92
F0.001881
aF154990.0
aF154990.0
asVs278
p93
(lp94
F0.002789
aF24.479
aF24.479
asVs279
p95
(lp96
F0.002796
aF25.777
aF25.777
asVs232
p97
(lp98
F0.001732
aF100.0
aF100.0
asVs261
p99
(lp100
F0.001514
aF208970.0
aF208970.0
asVs341
p101
(lp102
F0.001209
aF2.929
aF2.929
asVs231
p103
(lp104
F0.002723
aF169.74
aF169.74
asVs414
p105
(lp106
F0.003583
aF228.32
aF228.32
asVs234
p107
(lp108
F0.003527
aF169.74
aF169.74
asVs318
p109
(lp110
F0.001828
aF12.0
aF12.0
asVs342
p111
(lp112
F0.001229
aF2.929
aF2.929
asVs343
p113
(lp114
F0.002075
aF29.29
aF29.29
asVs432
p115
(lp116
F0.001165
aF154990.0
aF154990.0
asVs235
p117
(lp118
F0.003741
aF502590.0
aF502590.0
asVvpvtv
p119
(lp120
F0.001164
aF154990.0
aF154990.0
asVs123
p121
(lp122
F0.002958
aF12.927
aF12.927
asVs351
p123
(lp124
F0.003019
aF5000000.0
aF5000000.0
asVvpvts
p125
(lp126
F0.001221
aF154990.0
aF154990.0
asVvdotr
p127
(lp128
F0.00122
aF1.5498
aF1.5498
asVva
p129
(lp130
F0.000828
aF1.5498
aF1.5498
asVs121
p131
(lp132
F0.000924
aF12.829
aF12.829
asVs452
p133
(lp134
F0.001272
aF10.0
aF10.0
asVs126
p135
(lp136
F0.003803
aF122.58
aF122.58
asVs352
p137
(lp138
F0.002912
aF1.5498
aF1.5498
asVs2710
p139
(lp140
F0.003133
aF33.1
aF33.1
asVs2711
p141
(lp142
F0.001872
aF154990.0
aF154990.0
asVs2712
p143
(lp144
F0.001882
aF54987.0
aF54987.0
asVs127
p145
(lp146
F0.001396
aF12.927
aF12.927
asVs319
p147
(lp148
F0.002264
aF11.716
aF11.716
asVs152
p149
(lp150
F0.001704
aF119760.0
aF119760.0
asVs151
p151
(lp152
F0.001089
aF12.829
aF12.829
asVvpv
p153
(lp154
F0.000818
aF154980.0
aF154980.0
asVs2101
p155
(lp156
F0.001187
aF155080.0
aF155080.0
asVs124
p157
(lp158
F0.002175
aF6.4636
aF6.4636
asVs353
p159
(lp160
F0.004775
aF5000000.0
aF5000000.0
asVs2102
p161
(lp162
F0.001277
aF10.0
aF10.0
asVs311
p163
(lp164
F0.000816
aF2.929
aF2.929
asVs313
p165
(lp166
F0.000861
aF1.5498
aF1.5498
asVs312
p167
(lp168
F0.000838
aF1.0
aF1.0
asVs315
p169
(lp170
F0.001209
aF2.0
aF2.0
asVs314
p171
(lp172
F0.001393
aF1.0
aF1.0
asVs317
p173
(lp174
F0.000828
aF0.9999
aF0.9999
asVs316
p175
(lp176
F0.000784
aF0.1
aF0.1
asVs453
p177
(lp178
F0.001218
aF5.8579
aF5.8579
asVs119
p179
(lp180
F0.001482
aF122.58
aF122.58
asVs118
p181
(lp182
F0.001949
aF10.924
aF10.924
asVs423
p183
(lp184
F0.001089
aF10.54
aF10.54
asVs116
p185
(lp186
F0.000398
aF10.0
aF10.0
asVs115
p187
(lp188
F0.001894
aF9.1237
aF9.1237
asVs114
p189
(lp190
F0.001701
aF29.64
aF29.64
asVs221
p191
(lp192
F0.002225
aF466900.0
aF466900.0
asVs112
p193
(lp194
F0.001018
aF22.569
aF22.569
asVs111
p195
(lp196
F0.001137
aF10.366
aF10.366
asVs222
p197
(lp198
F0.002524
aF10.0
aF10.0
asVs451
p199
(lp200
F0.060795
aF12.007
aF12.007
asVs431
p201
(lp202
F0.000828
aF154990.0
aF154990.0
asVs4117
p203
(lp204
F0.001262
aF10.241
aF10.241
asVs424
p205
(lp206
F0.001088
aF10.54
aF10.54
asVvtvtv
p207
(lp208
F0.00122
aF10.0
aF10.0
asVs491
p209
(lp210
F0.003436
aF11.55
aF11.55
asVs321
p211
(lp212
F0.001262
aF10.0
aF10.0
asVs322
p213
(lp214
F0.002089
aF10.0
aF10.0
asVs323
p215
(lp216
F0.001614
aF35.924
aF35.924
asVs412
p217
(lp218
F0.001393
aF154990.0
aF154990.0
asVs413
p219
(lp220
F0.002014
aF154000.0
aF154000.0
asVs471
p221
(lp222
F-3e-06
aF24.649
aF24.649
asVs2111
p223
(lp224
F0.002304
aF3.0
aF3.0
asVs442
p225
(lp226
F0.004056
aF154990.0
aF154990.0
asVvpvpv
p227
(lp228
F0.001209
aF1.5498
aF1.5498
asVs162
p229
(lp230
F0.001142
aF12.829
aF12.829
asVs291
p231
(lp232
F0.001427
aF10.0
aF10.0
asVs292
p233
(lp234
F0.001785
aF9.99
aF9.99
asVs293
p235
(lp236
F0.000783
aF10.0
aF10.0
asVs258
p237
(lp238
F0.002799
aF8.253
aF8.253
asVs3110
p239
(lp240
F0.002577
aF22.0
aF22.0
asVs3113
p241
(lp242
F0.001436
aF2.0
aF2.0
asVs3112
p243
(lp244
F0.000861
aF15.668
aF15.668
asVs211
p245
(lp246
F0.001298
aF15.974
aF15.974
asVs212
p247
(lp248
F0.001578
aF90013.0
aF90013.0
asVs141
p249
(lp250
F0.001313
aF141280.0
aF141280.0
asVs122
p251
(lp252
F0.001296
aF154990.0
aF154990.0
asVs251
p253
(lp254
F0.001469
aF14.182
aF14.182
asVs252
p255
(lp256
F0.001281
aF19.0
aF19.0
asVs253
p257
(lp258
F0.002392
aF985370.0
aF985370.0
asVs254
p259
(lp260
F0.001207
aF10.0
aF10.0
asVs255
p261
(lp262
F0.001828
aF9.99
aF9.99
asVs256
p263
(lp264
F0.001565
aF210.0
aF210.0
asVs125
p265
(lp266
F0.002598
aF200.0
aF200.0
asVs415
p267
(lp268
F0.000729
aF153980.0
aF153980.0
asVs422
p269
(lp270
F0.001165
aF6.6983
aF6.6983
asVvbor
p271
(lp272
F0.01344
aF180.04
aF180.04
asVs421
p273
(lp274
F0.000775
aF12.829
aF12.829
asVs257
p275
(lp276
F0.00149
aF210.0
aF210.0
assV100
p277
(dp278
Vvif
p279
(lp280
F0.001359
aF1.635
aF1.635
asVs481
p281
(lp282
F0.002438
aF16450.0
aF16450.0
asVs113
p283
(lp284
F0.001066
aF100.63
aF100.63
asVs4116
p285
(lp286
F0.001414
aF0.74717
aF0.74717
asVs411
p287
(lp288
F0.001385
aF16450.0
aF16450.0
asVs4112
p289
(lp290
F0.001393
aF51974.0
aF51974.0
asVs4113
p291
(lp292
F0.003454
aF101.63
aF101.63
asVs332
p293
(lp294
F0.001376
aF102.0
aF102.0
asVs331
p295
(lp296
F0.001082
aF100.0
aF100.0
asVs131
p297
(lp298
F0.001348
aF105.18
aF105.18
asVs132
p299
(lp300
F0.001361
aF10002.0
aF10002.0
asVs171
p301
(lp302
F0.001238
aF16450.0
aF16450.0
asVs173
p303
(lp304
F0.001391
aF101.63
aF101.63
asVs172
p305
(lp306
F0.001355
aF16450.0
aF16450.0
asVs175
p307
(lp308
F0.001349
aF105.18
aF105.18
asVs174
p309
(lp310
F0.001392
aF101.63
aF101.63
asVs281
p311
(lp312
F0.00188
aF100.0
aF100.0
asVs176
p313
(lp314
F0.001221
aF1756.3
aF1756.3
asVs243
p315
(lp316
F0.003232
aF74453.0
aF74453.0
asVs242
p317
(lp318
F0.003508
aF14850.0
aF14850.0
asVs241
p319
(lp320
F0.003055
aF200.0
aF200.0
asVs441
p321
(lp322
F0.003645
aF16450.0
aF16450.0
asVvag
p323
(lp324
F0.001352
aF1.635
aF1.635
asVs443
p325
(lp326
F0.002888
aF16450.0
aF16450.0
asVs244
p327
(lp328
F0.002807
aF201.99
aF201.99
asVs4114
p329
(lp330
F0.0022
aF100.1
aF100.1
asVs4115
p331
(lp332
F0.00139
aF1.0289
aF1.0289
asVvas
p333
(lp334
F0.003011
aF1.635
aF1.635
asVs161
p335
(lp336
F0.003287
aF202.04
aF202.04
asVs3111
p337
(lp338
F0.001721
aF5.1874
aF5.1874
asVs482
p339
(lp340
F0.002225
aF16450.0
aF16450.0
asVs4121
p341
(lp342
F0.001389
aF16450.0
aF16450.0
asVs233
p343
(lp344
F0.011722
aF63220.0
aF63220.0
asVvsumr
p345
(lp346
F0.001634
aF5.1874
aF5.1874
asVvtv
p347
(lp348
F0.001343
aF100.0
aF100.0
asVs128
p349
(lp350
F0.001675
aF250.0
aF250.0
asVs276
p351
(lp352
F0.003016
aF16450.0
aF16450.0
asVs277
p353
(lp354
F0.00221
aF100.0
aF100.0
asVs274
p355
(lp356
F0.003399
aF1016600.0
aF1016600.0
asVs275
p357
(lp358
F0.007451
aF10000.0
aF10000.0
asVs272
p359
(lp360
F0.003497
aF32900.0
aF32900.0
asVs273
p361
(lp362
F0.003182
aF301.05
aF301.05
asVs271
p363
(lp364
F0.002226
aF16450.0
aF16450.0
asVs278
p365
(lp366
F0.003678
aF206.82
aF206.82
asVs279
p367
(lp368
F0.003578
aF208.48
aF208.48
asVs232
p369
(lp370
F0.002979
aF10000.0
aF10000.0
asVs261
p371
(lp372
F0.002672
aF22800.0
aF22800.0
asVs341
p373
(lp374
F0.001579
aF5.1874
aF5.1874
asVs231
p375
(lp376
F0.005518
aF18093.0
aF18093.0
asVs414
p377
(lp378
F0.008015
aF19131.0
aF19131.0
asVs234
p379
(lp380
F0.00803
aF18093.0
aF18093.0
asVs318
p381
(lp382
F0.002609
aF102.0
aF102.0
asVs342
p383
(lp384
F0.001573
aF5.1874
aF5.1874
asVs343
p385
(lp386
F0.004629
aF518.74
aF518.74
asVs432
p387
(lp388
F0.001341
aF16450.0
aF16450.0
asVs235
p389
(lp390
F0.006679
aF554110.0
aF554110.0
asVvpvtv
p391
(lp392
F0.001398
aF16450.0
aF16450.0
asVs123
p393
(lp394
F0.003174
aF103.25
aF103.25
asVs351
p395
(lp396
F0.003537
aF5000100.0
aF5000100.0
asVvpvts
p397
(lp398
F0.001347
aF16450.0
aF16450.0
asVvdotr
p399
(lp400
F0.00136
aF1.635
aF1.635
asVva
p401
(lp402
F0.000926
aF1.635
aF1.635
asVs121
p403
(lp404
F0.001337
aF105.18
aF105.18
asVs452
p405
(lp406
F0.001656
aF100.01
aF100.01
asVs126
p407
(lp408
F0.006412
aF10460.0
aF10460.0
asVs352
p409
(lp410
F0.003713
aF1.635
aF1.635
asVs2710
p411
(lp412
F0.003414
aF303.27
aF303.27
asVs2711
p413
(lp414
F0.002236
aF16450.0
aF16450.0
asVs2712
p415
(lp416
F0.002225
aF6449.8
aF6449.8
asVs127
p417
(lp418
F0.002032
aF103.25
aF103.25
asVs319
p419
(lp420
F0.003142
aF20.75
aF20.75
asVs152
p421
(lp422
F0.002724
aF12120.0
aF12120.0
asVs151
p423
(lp424
F0.001343
aF105.18
aF105.18
asVvpv
p425
(lp426
F0.001066
aF16350.0
aF16350.0
asVs2101
p427
(lp428
F0.00742
aF26350.0
aF26350.0
asVs124
p429
(lp430
F0.002503
aF51.625
aF51.625
asVs353
p431
(lp432
F0.005672
aF5000100.0
aF5000100.0
asVs2102
p433
(lp434
F0.003516
aF100.0
aF100.0
asVs311
p435
(lp436
F0.001644
aF5.1874
aF5.1874
asVs313
p437
(lp438
F0.001352
aF1.635
aF1.635
asVs312
p439
(lp440
F0.00164
aF1.0001
aF1.0001
asVs315
p441
(lp442
F0.002497
aF2.0
aF2.0
asVs314
p443
(lp444
F0.001765
aF1.0
aF1.0
asVs317
p445
(lp446
F0.001541
aF0.999
aF0.999
asVs316
p447
(lp448
F0.001199
aF0.01
aF0.01
asVs453
p449
(lp450
F0.001368
aF10.375
aF10.375
asVs119
p451
(lp452
F0.002258
aF13099.0
aF13099.0
asVs118
p453
(lp454
F0.002317
aF100.99
aF100.99
asVs423
p455
(lp456
F0.001343
aF100.64
aF100.64
asVs116
p457
(lp458
F0.002495
aF100.0
aF100.0
asVs115
p459
(lp460
F0.001868
aF99.013
aF99.013
asVs114
p461
(lp462
F0.003064
aF353.12
aF353.12
asVs221
p463
(lp464
F0.003579
aF611280.0
aF611280.0
asVs112
p465
(lp466
F0.001355
aF258.31
aF258.31
asVs111
p467
(lp468
F0.001397
aF100.41
aF100.41
asVs222
p469
(lp470
F0.003661
aF100.0
aF100.0
asVs451
p471
(lp472
F0.05203
aF104.22
aF104.22
asVs431
p473
(lp474
F0.001078
aF16450.0
aF16450.0
asVs4117
p475
(lp476
F0.001843
aF100.42
aF100.42
asVs424
p477
(lp478
F0.001328
aF103.25
aF103.25
asVvtvtv
p479
(lp480
F0.001505
aF100.0
aF100.0
asVs491
p481
(lp482
F0.003949
aF101.63
aF101.63
asVs321
p483
(lp484
F0.002872
aF100.0
aF100.0
asVs322
p485
(lp486
F0.004187
aF100.0
aF100.0
asVs323
p487
(lp488
F0.002675
aF439.15
aF439.15
asVs412
p489
(lp490
F0.001603
aF16450.0
aF16450.0
asVs413
p491
(lp492
F0.003169
aF16548.0
aF16548.0
asVs471
p493
(lp494
F5.1e-05
aF204.9
aF204.9
asVs2111
p495
(lp496
F0.004702
aF3.0
aF3.0
asVs442
p497
(lp498
F0.004399
aF16450.0
aF16450.0
asVvpvpv
p499
(lp500
F0.001493
aF1.635
aF1.635
asVs162
p501
(lp502
F0.001369
aF105.18
aF105.18
asVs291
p503
(lp504
F0.001785
aF100.0
aF100.0
asVs292
p505
(lp506
F0.002102
aF99.9
aF99.9
asVs293
p507
(lp508
F0.000934
aF100.0
aF100.0
asVs258
p509
(lp510
F0.003546
aF12.779
aF12.779
asVs3110
p511
(lp512
F0.002697
aF202.0
aF202.0
asVs3113
p513
(lp514
F0.001998
aF2.0
aF2.0
asVs3112
p515
(lp516
F0.001698
aF161.58
aF161.58
asVs211
p517
(lp518
F0.002402
aF191.55
aF191.55
asVs212
p519
(lp520
F0.002736
aF10005.0
aF10005.0
asVs141
p521
(lp522
F0.00163
aF25995.0
aF25995.0
asVs122
p523
(lp524
F0.001364
aF16450.0
aF16450.0
asVs251
p525
(lp526
F0.002215
aF104.35
aF104.35
asVs252
p527
(lp528
F0.001633
aF199.0
aF199.0
asVs253
p529
(lp530
F0.002972
aF999940.0
aF999940.0
asVs254
p531
(lp532
F0.001423
aF100.0
aF100.0
asVs255
p533
(lp534
F0.002069
aF99.9
aF99.9
asVs256
p535
(lp536
F0.005317
aF20100.0
aF20100.0
asVs125
p537
(lp538
F0.002912
aF20000.0
aF20000.0
asVs415
p539
(lp540
F0.001365
aF16447.0
aF16447.0
asVs422
p541
(lp542
F0.001356
aF52.293
aF52.293
asVvbor
p543
(lp544
F0.013978
aF180.04
aF180.04
asVs421
p545
(lp546
F0.00119
aF105.18
aF105.18
asVs257
p547
(lp548
F0.004997
aF20100.0
aF20100.0
assV1000
p549
(dp550
Vvif
p551
(lp552
F0.001326
aF1.6439
aF1.6439
asVs481
p553
(lp554
F0.002411
aF2643.9
aF2643.9
asVs113
p555
(lp556
F0.001044
aF1000.6
aF1000.6
asVs4116
p557
(lp558
F0.00135
aF0.75617
aF0.75617
asVs411
p559
(lp560
F0.001362
aF2643.9
aF2643.9
asVs4112
p561
(lp562
F0.00147
aF8485.5
aF8485.5
asVs4113
p563
(lp564
F0.003691
aF1001.6
aF1001.6
asVs332
p565
(lp566
F0.001323
aF1002.0
aF1002.0
asVs331
p567
(lp568
F0.001021
aF1000.0
aF1000.0
asVs131
p569
(lp570
F0.001332
aF1007.5
aF1007.5
asVs132
p571
(lp572
F0.001354
aF1000000.0
aF1000000.0
asVs171
p573
(lp574
F0.001191
aF2643.9
aF2643.9
asVs173
p575
(lp576
F0.001325
aF1001.6
aF1001.6
asVs172
p577
(lp578
F0.001311
aF2643.9
aF2643.9
asVs175
p579
(lp580
F0.00131
aF1007.5
aF1007.5
asVs174
p581
(lp582
F0.001312
aF1001.6
aF1001.6
asVs281
p583
(lp584
F0.001802
aF1000.0
aF1000.0
asVs176
p585
(lp586
F0.001057
aF1023.1
aF1023.1
asVs243
p587
(lp588
F0.003062
aF9467.9
aF9467.9
asVs242
p589
(lp590
F0.003512
aF1498500.0
aF1498500.0
asVs241
p591
(lp592
F0.003023
aF2000.0
aF2000.0
asVs441
p593
(lp594
F0.003489
aF2643.9
aF2643.9
asVvag
p595
(lp596
F0.001323
aF1.6439
aF1.6439
asVs443
p597
(lp598
F0.002921
aF2643.9
aF2643.9
asVs244
p599
(lp600
F0.002661
aF2002.0
aF2002.0
asVs4114
p601
(lp602
F0.002085
aF1000.0
aF1000.0
asVs4115
p603
(lp604
F0.00149
aF1.0378
aF1.0378
asVvas
p605
(lp606
F0.003259
aF1.6439
aF1.6439
asVs161
p607
(lp608
F0.003178
aF2002.1
aF2002.1
asVs3111
p609
(lp610
F0.001767
aF7.4855
aF7.4855
asVs482
p611
(lp612
F0.002203
aF2643.9
aF2643.9
asVs4121
p613
(lp614
F0.001352
aF2643.9
aF2643.9
asVs233
p615
(lp616
F0.093538
aF9733400.0
aF9733400.0
asVvsumr
p617
(lp618
F0.00174
aF7.4855
aF7.4855
asVvtv
p619
(lp620
F0.001323
aF1000.0
aF1000.0
asVs128
p621
(lp622
F0.001962
aF2500.0
aF2500.0
asVs276
p623
(lp624
F0.002996
aF2643.9
aF2643.9
asVs277
p625
(lp626
F0.002188
aF1000.0
aF1000.0
asVs274
p627
(lp628
F0.003238
aF1003600.0
aF1003600.0
asVs275
p629
(lp630
F0.069906
aF1000000.0
aF1000000.0
asVs272
p631
(lp632
F0.003389
aF5287.9
aF5287.9
asVs273
p633
(lp634
F0.002922
aF3001.0
aF3001.0
asVs271
p635
(lp636
F0.002203
aF2643.9
aF2643.9
asVs278
p637
(lp638
F0.003459
aF2009.1
aF2009.1
asVs279
p639
(lp640
F0.003381
aF2010.8
aF2010.8
asVs232
p641
(lp642
F0.003401
aF1000000.0
aF1000000.0
asVs261
p643
(lp644
F0.002538
aF3289.5
aF3289.5
asVs341
p645
(lp646
F0.001545
aF7.4855
aF7.4855
asVs231
p647
(lp648
F0.044505
aF1821100.0
aF1821100.0
asVs414
p649
(lp650
F0.069092
aF1836100.0
aF1836100.0
asVs234
p651
(lp652
F0.06888
aF1821100.0
aF1821100.0
asVs318
p653
(lp654
F0.002628
aF1002.0
aF1002.0
asVs342
p655
(lp656
F0.001539
aF7.4855
aF7.4855
asVs343
p657
(lp658
F0.039459
aF7485.5
aF7485.5
asVs432
p659
(lp660
F0.001325
aF2643.9
aF2643.9
asVs235
p661
(lp662
F0.044813
aF2362800.0
aF2362800.0
asVvpvtv
p663
(lp664
F0.001351
aF2643.9
aF2643.9
asVs123
p665
(lp666
F0.003171
aF1003.3
aF1003.3
asVs351
p667
(lp668
F0.003806
aF5001000.0
aF5001000.0
asVvpvts
p669
(lp670
F0.00133
aF2643.9
aF2643.9
asVvdotr
p671
(lp672
F0.001338
aF1.6439
aF1.6439
asVva
p673
(lp674
F0.000888
aF1.6439
aF1.6439
asVs121
p675
(lp676
F0.001377
aF1007.5
aF1007.5
asVs452
p677
(lp678
F0.001621
aF1000.5
aF1000.5
asVs126
p679
(lp680
F0.042562
aF1006900.0
aF1006900.0
asVs352
p681
(lp682
F0.003887
aF1.6439
aF1.6439
asVs2710
p683
(lp684
F0.003412
aF3003.3
aF3003.3
asVs2711
p685
(lp686
F0.002198
aF2643.9
aF2643.9
asVs2712
p687
(lp688
F0.00219
aF1643.9
aF1643.9
asVs127
p689
(lp690
F0.002176
aF1003.3
aF1003.3
asVs319
p691
(lp692
F0.003103
aF29.942
aF29.942
asVs152
p693
(lp694
F0.002528
aF2202.1
aF2202.1
asVs151
p695
(lp696
F0.001331
aF1007.5
aF1007.5
asVvpv
p697
(lp698
F0.001057
aF1643.9
aF1643.9
asVs2101
p699
(lp700
F0.073001
aF1001600.0
aF1001600.0
asVs124
p701
(lp702
F0.002432
aF501.64
aF501.64
asVs353
p703
(lp704
F0.006503
aF5001000.0
aF5001000.0
asVs2102
p705
(lp706
F0.034628
aF1000.0
aF1000.0
asVs311
p707
(lp708
F0.00173
aF7.4855
aF7.4855
asVs313
p709
(lp710
F0.001325
aF1.6439
aF1.6439
asVs312
p711
(lp712
F0.001772
aF1.001
aF1.001
asVs315
p713
(lp714
F0.002597
aF2.0
aF2.0
asVs314
p715
(lp716
F0.001753
aF1.0
aF1.0
asVs317
p717
(lp718
F0.001719
aF0.99005
aF0.99005
asVs316
p719
(lp720
F0.001174
aF0.001
aF0.001
asVs453
p721
(lp722
F0.001328
aF14.971
aF14.971
asVs119
p723
(lp724
F0.002701
aF1321200.0
aF1321200.0
asVs118
p725
(lp726
F0.007776
aF1001.0
aF1001.0
asVs423
p727
(lp728
F0.001423
aF1000.7
aF1000.7
asVs116
p729
(lp730
F0.002807
aF1000.0
aF1000.0
asVs115
p731
(lp732
F0.001929
aF999.0
aF999.0
asVs114
p733
(lp734
F0.009095
aF3629.0
aF3629.0
asVs221
p735
(lp736
F0.003532
aF1145700.0
aF1145700.0
asVs112
p737
(lp738
F0.001347
aF2636.4
aF2636.4
asVs111
p739
(lp740
F0.001323
aF1000.4
aF1000.4
asVs222
p741
(lp742
F0.003648
aF1000.0
aF1000.0
asVs451
p743
(lp744
F0.051933
aF1006.5
aF1006.5
asVs431
p745
(lp746
F0.001058
aF2643.9
aF2643.9
asVs4117
p747
(lp748
F0.001819
aF1000.4
aF1000.4
asVs424
p749
(lp750
F0.001378
aF1026.3
aF1026.3
asVvtvtv
p751
(lp752
F0.001452
aF1000.0
aF1000.0
asVs491
p753
(lp754
F0.004139
aF1001.6
aF1001.6
asVs321
p755
(lp756
F0.003026
aF1000.0
aF1000.0
asVs322
p757
(lp758
F0.004342
aF1000.0
aF1000.0
asVs323
p759
(lp760
F0.002686
aF4551.7
aF4551.7
asVs412
p761
(lp762
F0.001561
aF2643.9
aF2643.9
asVs413
p763
(lp764
F0.003268
aF3643.6
aF3643.6
asVs471
p765
(lp766
F1.9e-05
aF2004.9
aF2004.9
asVs2111
p767
(lp768
F0.005043
aF3.0
aF3.0
asVs442
p769
(lp770
F0.004395
aF2643.9
aF2643.9
asVvpvpv
p771
(lp772
F0.001453
aF1.6439
aF1.6439
asVs162
p773
(lp774
F0.001358
aF1007.5
aF1007.5
asVs291
p775
(lp776
F0.001764
aF1000.0
aF1000.0
asVs292
p777
(lp778
F0.002055
aF999.0
aF999.0
asVs293
p779
(lp780
F0.000875
aF1000.0
aF1000.0
asVs258
p781
(lp782
F0.003315
aF17.375
aF17.375
asVs3110
p783
(lp784
F0.002653
aF2002.0
aF2002.0
asVs3113
p785
(lp786
F0.001765
aF2.0
aF2.0
asVs3112
p787
(lp788
F0.001748
aF1639.7
aF1639.7
asVs211
p789
(lp790
F0.002513
aF1987.0
aF1987.0
asVs212
p791
(lp792
F0.00259
aF2006.5
aF2006.5
asVs141
p793
(lp794
F0.012186
aF1001600.0
aF1001600.0
asVs122
p795
(lp796
F0.00132
aF2643.9
aF2643.9
asVs251
p797
(lp798
F0.001773
aF1004.4
aF1004.4
asVs252
p799
(lp800
F0.001611
aF1999.0
aF1999.0
asVs253
p801
(lp802
F0.002928
aF1002000.0
aF1002000.0
asVs254
p803
(lp804
F0.001398
aF1000.0
aF1000.0
asVs255
p805
(lp806
F0.001997
aF999.0
aF999.0
asVs256
p807
(lp808
F0.040418
aF2001000.0
aF2001000.0
asVs125
p809
(lp810
F0.003323
aF2000000.0
aF2000000.0
asVs415
p811
(lp812
F0.001339
aF2641.9
aF2641.9
asVs422
p813
(lp814
F0.001406
aF502.87
aF502.87
asVvbor
p815
(lp816
F0.01395
aF180.04
aF180.04
asVs421
p817
(lp818
F0.001216
aF1007.5
aF1007.5
asVs257
p819
(lp820
F0.040372
aF2001000.0
aF2001000.0
asssS'vec'
p821
(dp822
V10
p823
(dp824
Vvif
p825
(lp826
F0.001424
aF1.5498
aF1.5498
asVs481
p827
(lp828
F0.002109
aF154990.0
aF154990.0
asVs113
p829
(lp830
F0.001632
aF10.55
aF10.55
asVs4116
p831
(lp832
F0.001228
aF0.65398
aF0.65398
asVs411
p833
(lp834
F0.000761
aF154990.0
aF154990.0
asVs4112
p835
(lp836
F0.001109
aF292910.0
aF292910.0
asVs4113
p837
(lp838
F0.001579
aF11.55
aF11.55
asVs332
p839
(lp840
F0.000847
aF12.0
aF12.0
asVs331
p841
(lp842
F0.001199
aF10.0
aF10.0
asVs131
p843
(lp844
F0.000662
aF12.829
aF12.829
asVs132
p845
(lp846
F0.0009
aF100.96
aF100.96
asVs171
p847
(lp848
F0.000893
aF154990.0
aF154990.0
asVs173
p849
(lp850
F0.001085
aF11.464
aF11.464
asVs172
p851
(lp852
F0.001098
aF154990.0
aF154990.0
asVs175
p853
(lp854
F0.001097
aF12.829
aF12.829
asVs174
p855
(lp856
F0.001335
aF11.464
aF11.464
asVs281
p857
(lp858
F0.002413
aF10.0
aF10.0
asVs176
p859
(lp860
F0.001182
aF94864.0
aF94864.0
asVs243
p861
(lp862
F0.002067
aF703170.0
aF703170.0
asVs242
p863
(lp864
F0.002468
aF135.0
aF135.0
asVs241
p865
(lp866
F0.001883
aF20.0
aF20.0
asVs441
p867
(lp868
F0.003501
aF154990.0
aF154990.0
asVvag
p869
(lp870
F0.000847
aF1.5498
aF1.5498
asVs443
p871
(lp872
F0.002587
aF154990.0
aF154990.0
asVs244
p873
(lp874
F0.001587
aF21.9
aF21.9
asVs4114
p875
(lp876
F0.001551
aF10.64
aF10.64
asVs4115
p877
(lp878
F0.001239
aF0.94449
aF0.94449
asVvas
p879
(lp880
F0.00136
aF1.5498
aF1.5498
asVs161
p881
(lp882
F0.002858
aF21.88
aF21.88
asVs3111
p883
(lp884
F0.001196
aF2.929
aF2.929
asVs482
p885
(lp886
F0.001845
aF154990.0
aF154990.0
asVs4121
p887
(lp888
F0.001889
aF154990.0
aF154990.0
asVs233
p889
(lp890
F0.004674
aF318.99
aF318.99
asVvsumr
p891
(lp892
F0.000804
aF2.929
aF2.929
asVvtv
p893
(lp894
F0.001576
aF10.0
aF10.0
asVs128
p895
(lp896
F0.001162
aF25.0
aF25.0
asVs276
p897
(lp898
F0.002813
aF154990.0
aF154990.0
asVs277
p899
(lp900
F0.001678
aF10.0
aF10.0
asVs274
p901
(lp902
F0.00276
aF1155000.0
aF1155000.0
asVs275
p903
(lp904
F0.003404
aF100.0
aF100.0
asVs272
p905
(lp906
F0.002806
aF309970.0
aF309970.0
asVs273
p907
(lp908
F0.002337
aF31.308
aF31.308
asVs271
p909
(lp910
F0.001848
aF154990.0
aF154990.0
asVs278
p911
(lp912
F0.002766
aF24.479
aF24.479
asVs279
p913
(lp914
F0.00277
aF25.777
aF25.777
asVs232
p915
(lp916
F0.001726
aF100.0
aF100.0
asVs261
p917
(lp918
F0.001498
aF208970.0
aF208970.0
asVs341
p919
(lp920
F0.001194
aF2.929
aF2.929
asVs231
p921
(lp922
F0.002733
aF169.74
aF169.74
asVs414
p923
(lp924
F0.00357
aF228.32
aF228.32
asVs234
p925
(lp926
F0.003527
aF169.74
aF169.74
asVs318
p927
(lp928
F0.001804
aF12.0
aF12.0
asVs342
p929
(lp930
F0.001184
aF2.929
aF2.929
asVs343
p931
(lp932
F0.001887
aF29.29
aF29.29
asVs432
p933
(lp934
F0.001596
aF154990.0
aF154990.0
asVs235
p935
(lp936
F0.00373
aF502590.0
aF502590.0
asVvpvtv
p937
(lp938
F0.000979
aF154990.0
aF154990.0
asVs123
p939
(lp940
F0.00265
aF12.927
aF12.927
asVs351
p941
(lp942
F0.008143
aF5000000.0
aF5000000.0
asVvpvts
p943
(lp944
F0.001672
aF154990.0
aF154990.0
asVvdotr
p945
(lp946
F0.000836
aF1.5498
aF1.5498
asVva
p947
(lp948
F0.002151
aF1.5498
aF1.5498
asVs121
p949
(lp950
F0.000673
aF12.829
aF12.829
asVs452
p951
(lp952
F0.001283
aF10.0
aF10.0
asVs126
p953
(lp954
F0.003797
aF122.58
aF122.58
asVs352
p955
(lp956
F0.002792
aF1.5498
aF1.5498
asVs2710
p957
(lp958
F0.003109
aF33.1
aF33.1
asVs2711
p959
(lp960
F0.001849
aF154990.0
aF154990.0
asVs2712
p961
(lp962
F0.001858
aF54987.0
aF54987.0
asVs127
p963
(lp964
F0.002215
aF12.927
aF12.927
asVs319
p965
(lp966
F0.00224
aF11.716
aF11.716
asVs152
p967
(lp968
F0.002707
aF119760.0
aF119760.0
asVs151
p969
(lp970
F0.000673
aF12.829
aF12.829
asVvpv
p971
(lp972
F0.001587
aF154980.0
aF154980.0
asVs2101
p973
(lp974
F0.001443
aF155080.0
aF155080.0
asVs124
p975
(lp976
F0.00204
aF6.4636
aF6.4636
asVs353
p977
(lp978
F0.004645
aF5000000.0
aF5000000.0
asVs2102
p979
(lp980
F0.000908
aF10.0
aF10.0
asVs311
p981
(lp982
F0.000802
aF2.929
aF2.929
asVs313
p983
(lp984
F0.000792
aF1.5498
aF1.5498
asVs312
p985
(lp986
F0.000804
aF1.0
aF1.0
asVs315
p987
(lp988
F0.001184
aF2.0
aF2.0
asVs314
p989
(lp990
F0.001413
aF1.0
aF1.0
asVs317
p991
(lp992
F0.00075
aF0.9999
aF0.9999
asVs316
p993
(lp994
F0.001074
aF0.1
aF0.1
asVs453
p995
(lp996
F0.001204
aF5.8579
aF5.8579
asVs119
p997
(lp998
F0.00106
aF122.58
aF122.58
asVs118
p999
(lp1000
F0.001864
aF10.924
aF10.924
asVs423
p1001
(lp1002
F0.000761
aF10.54
aF10.54
asVs116
p1003
(lp1004
F0.000288
aF10.0
aF10.0
asVs115
p1005
(lp1006
F0.002978
aF9.1237
aF9.1237
asVs114
p1007
(lp1008
F0.001811
aF29.64
aF29.64
asVs221
p1009
(lp1010
F0.002203
aF466900.0
aF466900.0
asVs112
p1011
(lp1012
F0.001054
aF22.569
aF22.569
asVs111
p1013
(lp1014
F0.00109
aF10.366
aF10.366
asVs222
p1015
(lp1016
F0.002488
aF10.0
aF10.0
asVs451
p1017
(lp1018
F0.068423
aF12.007
aF12.007
asVs431
p1019
(lp1020
F0.001587
aF154990.0
aF154990.0
asVs4117
p1021
(lp1022
F0.001283
aF10.241
aF10.241
asVs424
p1023
(lp1024
F0.00075
aF10.54
aF10.54
asVvtvtv
p1025
(lp1026
F0.001143
aF10.0
aF10.0
asVs491
p1027
(lp1028
F0.001855
aF11.55
aF11.55
asVs321
p1029
(lp1030
F0.001259
aF10.0
aF10.0
asVs322
p1031
(lp1032
F0.002056
aF10.0
aF10.0
asVs323
p1033
(lp1034
F0.001576
aF35.924
aF35.924
asVs412
p1035
(lp1036
F0.001369
aF154990.0
aF154990.0
asVs413
p1037
(lp1038
F0.001678
aF154000.0
aF154000.0
asVs471
p1039
(lp1040
F-2.9e-05
aF24.649
aF24.649
asVs2111
p1041
(lp1042
F0.002557
aF3.0
aF3.0
asVs442
p1043
(lp1044
F0.00464
aF154990.0
aF154990.0
asVvpvpv
p1045
(lp1046
F0.001153
aF1.5498
aF1.5498
asVs162
p1047
(lp1048
F0.001325
aF12.829
aF12.829
asVs291
p1049
(lp1050
F0.001401
aF10.0
aF10.0
asVs292
p1051
(lp1052
F0.00177
aF9.99
aF9.99
asVs293
p1053
(lp1054
F0.000967
aF10.0
aF10.0
asVs258
p1055
(lp1056
F0.002762
aF8.253
aF8.253
asVs3110
p1057
(lp1058
F0.002585
aF22.0
aF22.0
asVs3113
p1059
(lp1060
F0.001619
aF2.0
aF2.0
asVs3112
p1061
(lp1062
F0.001196
aF15.668
aF15.668
asVs211
p1063
(lp1064
F0.001283
aF15.974
aF15.974
asVs212
p1065
(lp1066
F0.001546
aF90013.0
aF90013.0
asVs141
p1067
(lp1068
F0.001463
aF141280.0
aF141280.0
asVs122
p1069
(lp1070
F0.001271
aF154990.0
aF154990.0
asVs251
p1071
(lp1072
F0.001367
aF14.182
aF14.182
asVs252
p1073
(lp1074
F0.001282
aF19.0
aF19.0
asVs253
p1075
(lp1076
F0.002406
aF985370.0
aF985370.0
asVs254
p1077
(lp1078
F0.00101
aF10.0
aF10.0
asVs255
p1079
(lp1080
F0.001815
aF9.99
aF9.99
asVs256
p1081
(lp1082
F0.002058
aF210.0
aF210.0
asVs125
p1083
(lp1084
F0.001959
aF200.0
aF200.0
asVs415
p1085
(lp1086
F0.001032
aF153980.0
aF153980.0
asVs422
p1087
(lp1088
F0.000879
aF6.6983
aF6.6983
asVvbor
p1089
(lp1090
F0.010312
aF180.04
aF180.04
asVs421
p1091
(lp1092
F0.000706
aF12.829
aF12.829
asVs257
p1093
(lp1094
F0.001523
aF210.0
aF210.0
assV100
p1095
(dp1096
Vvif
p1097
(lp1098
F0.001293
aF1.635
aF1.635
asVs481
p1099
(lp1100
F0.002226
aF16450.0
aF16450.0
asVs113
p1101
(lp1102
F0.000659
aF100.63
aF100.63
asVs4116
p1103
(lp1104
F0.001402
aF0.74717
aF0.74717
asVs411
p1105
(lp1106
F0.000854
aF16450.0
aF16450.0
asVs4112
p1107
(lp1108
F0.00123
aF51974.0
aF51974.0
asVs4113
p1109
(lp1110
F0.001805
aF101.63
aF101.63
asVs332
p1111
(lp1112
F0.001157
aF102.0
aF102.0
asVs331
p1113
(lp1114
F0.001364
aF100.0
aF100.0
asVs131
p1115
(lp1116
F0.000769
aF105.18
aF105.18
asVs132
p1117
(lp1118
F0.000705
aF10002.0
aF10002.0
asVs171
p1119
(lp1120
F0.000941
aF16450.0
aF16450.0
asVs173
p1121
(lp1122
F0.000794
aF101.63
aF101.63
asVs172
p1123
(lp1124
F0.001
aF16450.0
aF16450.0
asVs175
p1125
(lp1126
F0.001348
aF105.18
aF105.18
asVs174
p1127
(lp1128
F0.00081
aF101.63
aF101.63
asVs281
p1129
(lp1130
F0.001925
aF100.0
aF100.0
asVs176
p1131
(lp1132
F0.000989
aF1756.3
aF1756.3
asVs243
p1133
(lp1134
F0.002078
aF74453.0
aF74453.0
asVs242
p1135
(lp1136
F0.003495
aF14850.0
aF14850.0
asVs241
p1137
(lp1138
F0.002583
aF200.0
aF200.0
asVs441
p1139
(lp1140
F0.003619
aF16450.0
aF16450.0
asVvag
p1141
(lp1142
F0.000949
aF1.635
aF1.635
asVs443
p1143
(lp1144
F0.002886
aF16450.0
aF16450.0
asVs244
p1145
(lp1146
F0.002075
aF201.99
aF201.99
asVs4114
p1147
(lp1148
F0.001446
aF100.1
aF100.1
asVs4115
p1149
(lp1150
F0.0014
aF1.0289
aF1.0289
asVvas
p1151
(lp1152
F0.001742
aF1.635
aF1.635
asVs161
p1153
(lp1154
F0.003282
aF202.04
aF202.04
asVs3111
p1155
(lp1156
F0.00173
aF5.1874
aF5.1874
asVs482
p1157
(lp1158
F0.002215
aF16450.0
aF16450.0
asVs4121
p1159
(lp1160
F0.000892
aF16450.0
aF16450.0
asVs233
p1161
(lp1162
F0.011695
aF63220.0
aF63220.0
asVvsumr
p1163
(lp1164
F0.001643
aF5.1874
aF5.1874
asVvtv
p1165
(lp1166
F0.00075
aF100.0
aF100.0
asVs128
p1167
(lp1168
F0.001657
aF250.0
aF250.0
asVs276
p1169
(lp1170
F0.002759
aF16450.0
aF16450.0
asVs277
p1171
(lp1172
F0.002206
aF100.0
aF100.0
asVs274
p1173
(lp1174
F0.003126
aF1016600.0
aF1016600.0
asVs275
p1175
(lp1176
F0.007407
aF10000.0
aF10000.0
asVs272
p1177
(lp1178
F0.003113
aF32900.0
aF32900.0
asVs273
p1179
(lp1180
F0.002686
aF301.05
aF301.05
asVs271
p1181
(lp1182
F0.002224
aF16450.0
aF16450.0
asVs278
p1183
(lp1184
F0.003127
aF206.82
aF206.82
asVs279
p1185
(lp1186
F0.003131
aF208.48
aF208.48
asVs232
p1187
(lp1188
F0.002975
aF10000.0
aF10000.0
asVs261
p1189
(lp1190
F0.002029
aF22800.0
aF22800.0
asVs341
p1191
(lp1192
F0.001562
aF5.1874
aF5.1874
asVs231
p1193
(lp1194
F0.005515
aF18093.0
aF18093.0
asVs414
p1195
(lp1196
F0.007884
aF19131.0
aF19131.0
asVs234
p1197
(lp1198
F0.007887
aF18093.0
aF18093.0
asVs318
p1199
(lp1200
F0.002596
aF102.0
aF102.0
asVs342
p1201
(lp1202
F0.001583
aF5.1874
aF5.1874
asVs343
p1203
(lp1204
F0.004619
aF518.74
aF518.74
asVs432
p1205
(lp1206
F0.00075
aF16450.0
aF16450.0
asVs235
p1207
(lp1208
F0.006667
aF554110.0
aF554110.0
asVvpvtv
p1209
(lp1210
F0.000871
aF16450.0
aF16450.0
asVs123
p1211
(lp1212
F0.003162
aF103.25
aF103.25
asVs351
p1213
(lp1214
F0.006319
aF5000100.0
aF5000100.0
asVvpvts
p1215
(lp1216
F0.000766
aF16450.0
aF16450.0
asVvdotr
p1217
(lp1218
F0.00134
aF1.635
aF1.635
asVva
p1219
(lp1220
F0.000528
aF1.635
aF1.635
asVs121
p1221
(lp1222
F0.000757
aF105.18
aF105.18
asVs452
p1223
(lp1224
F0.001131
aF100.01
aF100.01
asVs126
p1225
(lp1226
F0.006393
aF10460.0
aF10460.0
asVs352
p1227
(lp1228
F0.003681
aF1.635
aF1.635
asVs2710
p1229
(lp1230
F0.003316
aF303.27
aF303.27
asVs2711
p1231
(lp1232
F0.002225
aF16450.0
aF16450.0
asVs2712
p1233
(lp1234
F0.002234
aF6449.8
aF6449.8
asVs127
p1235
(lp1236
F0.001763
aF103.25
aF103.25
asVs319
p1237
(lp1238
F0.003079
aF20.75
aF20.75
asVs152
p1239
(lp1240
F0.001798
aF12120.0
aF12120.0
asVs151
p1241
(lp1242
F0.000758
aF105.18
aF105.18
asVvpv
p1243
(lp1244
F0.000749
aF16350.0
aF16350.0
asVs2101
p1245
(lp1246
F0.013194
aF26350.0
aF26350.0
asVs124
p1247
(lp1248
F0.002509
aF51.625
aF51.625
asVs353
p1249
(lp1250
F0.00566
aF5000100.0
aF5000100.0
asVs2102
p1251
(lp1252
F0.003515
aF100.0
aF100.0
asVs311
p1253
(lp1254
F0.001631
aF5.1874
aF5.1874
asVs313
p1255
(lp1256
F0.00134
aF1.635
aF1.635
asVs312
p1257
(lp1258
F0.001649
aF1.0001
aF1.0001
asVs315
p1259
(lp1260
F0.002484
aF2.0
aF2.0
asVs314
p1261
(lp1262
F0.001769
aF1.0
aF1.0
asVs317
p1263
(lp1264
F0.00155
aF0.999
aF0.999
asVs316
p1265
(lp1266
F0.001349
aF0.01
aF0.01
asVs453
p1267
(lp1268
F0.001345
aF10.375
aF10.375
asVs119
p1269
(lp1270
F0.001312
aF13099.0
aF13099.0
asVs118
p1271
(lp1272
F0.002309
aF100.99
aF100.99
asVs423
p1273
(lp1274
F0.000766
aF100.64
aF100.64
asVs116
p1275
(lp1276
F0.002706
aF100.0
aF100.0
asVs115
p1277
(lp1278
F0.001493
aF99.013
aF99.013
asVs114
p1279
(lp1280
F0.003048
aF353.12
aF353.12
asVs221
p1281
(lp1282
F0.00346
aF611280.0
aF611280.0
asVs112
p1283
(lp1284
F0.001351
aF258.31
aF258.31
asVs111
p1285
(lp1286
F0.00088
aF100.41
aF100.41
asVs222
p1287
(lp1288
F0.003657
aF100.0
aF100.0
asVs451
p1289
(lp1290
F0.060751
aF104.22
aF104.22
asVs431
p1291
(lp1292
F0.00075
aF16450.0
aF16450.0
asVs4117
p1293
(lp1294
F0.001399
aF100.42
aF100.42
asVs424
p1295
(lp1296
F0.000781
aF103.25
aF103.25
asVvtvtv
p1297
(lp1298
F0.000985
aF100.0
aF100.0
asVs491
p1299
(lp1300
F0.002223
aF101.63
aF101.63
asVs321
p1301
(lp1302
F0.002858
aF100.0
aF100.0
asVs322
p1303
(lp1304
F0.004186
aF100.0
aF100.0
asVs323
p1305
(lp1306
F0.002629
aF439.15
aF439.15
asVs412
p1307
(lp1308
F0.001601
aF16450.0
aF16450.0
asVs413
p1309
(lp1310
F0.002067
aF16548.0
aF16548.0
asVs471
p1311
(lp1312
F5.8e-05
aF204.9
aF204.9
asVs2111
p1313
(lp1314
F0.004757
aF3.0
aF3.0
asVs442
p1315
(lp1316
F0.00485
aF16450.0
aF16450.0
asVvpvpv
p1317
(lp1318
F0.000975
aF1.635
aF1.635
asVs162
p1319
(lp1320
F0.001409
aF105.18
aF105.18
asVs291
p1321
(lp1322
F0.001796
aF100.0
aF100.0
asVs292
p1323
(lp1324
F0.002089
aF99.9
aF99.9
asVs293
p1325
(lp1326
F0.000955
aF100.0
aF100.0
asVs258
p1327
(lp1328
F0.003064
aF12.779
aF12.779
asVs3110
p1329
(lp1330
F0.002682
aF202.0
aF202.0
asVs3113
p1331
(lp1332
F0.001877
aF2.0
aF2.0
asVs3112
p1333
(lp1334
F0.001684
aF161.58
aF161.58
asVs211
p1335
(lp1336
F0.001916
aF191.55
aF191.55
asVs212
p1337
(lp1338
F0.002221
aF10005.0
aF10005.0
asVs141
p1339
(lp1340
F0.001651
aF25995.0
aF25995.0
asVs122
p1341
(lp1342
F0.001198
aF16450.0
aF16450.0
asVs251
p1343
(lp1344
F0.001173
aF104.35
aF104.35
asVs252
p1345
(lp1346
F0.001115
aF199.0
aF199.0
asVs253
p1347
(lp1348
F0.002682
aF999940.0
aF999940.0
asVs254
p1349
(lp1350
F0.00143
aF100.0
aF100.0
asVs255
p1351
(lp1352
F0.002066
aF99.9
aF99.9
asVs256
p1353
(lp1354
F0.005319
aF20100.0
aF20100.0
asVs125
p1355
(lp1356
F0.001759
aF20000.0
aF20000.0
asVs415
p1357
(lp1358
F0.001376
aF16447.0
aF16447.0
asVs422
p1359
(lp1360
F0.00075
aF52.293
aF52.293
asVvbor
p1361
(lp1362
F0.010416
aF180.04
aF180.04
asVs421
p1363
(lp1364
F0.000763
aF105.18
aF105.18
asVs257
p1365
(lp1366
F0.005129
aF20100.0
aF20100.0
assV1000
p1367
(dp1368
Vvif
p1369
(lp1370
F0.001203
aF1.6439
aF1.6439
asVs481
p1371
(lp1372
F0.002272
aF2643.9
aF2643.9
asVs113
p1373
(lp1374
F0.000663
aF1000.6
aF1000.6
asVs4116
p1375
(lp1376
F0.001636
aF0.75617
aF0.75617
asVs411
p1377
(lp1378
F0.000905
aF2643.9
aF2643.9
asVs4112
p1379
(lp1380
F0.001155
aF8485.5
aF8485.5
asVs4113
p1381
(lp1382
F0.002251
aF1001.6
aF1001.6
asVs332
p1383
(lp1384
F0.001106
aF1002.0
aF1002.0
asVs331
p1385
(lp1386
F0.00131
aF1000.0
aF1000.0
asVs131
p1387
(lp1388
F0.000768
aF1007.5
aF1007.5
asVs132
p1389
(lp1390
F0.000743
aF1000000.0
aF1000000.0
asVs171
p1391
(lp1392
F0.000877
aF2643.9
aF2643.9
asVs173
p1393
(lp1394
F0.000778
aF1001.6
aF1001.6
asVs172
p1395
(lp1396
F0.000892
aF2643.9
aF2643.9
asVs175
p1397
(lp1398
F0.001321
aF1007.5
aF1007.5
asVs174
p1399
(lp1400
F0.00078
aF1001.6
aF1001.6
asVs281
p1401
(lp1402
F0.001787
aF1000.0
aF1000.0
asVs176
p1403
(lp1404
F0.000793
aF1023.1
aF1023.1
asVs243
p1405
(lp1406
F0.002618
aF9467.9
aF9467.9
asVs242
p1407
(lp1408
F0.003522
aF1498500.0
aF1498500.0
asVs241
p1409
(lp1410
F0.002794
aF2000.0
aF2000.0
asVs441
p1411
(lp1412
F0.003391
aF2643.9
aF2643.9
asVvag
p1413
(lp1414
F0.000879
aF1.6439
aF1.6439
asVs443
p1415
(lp1416
F0.002862
aF2643.9
aF2643.9
asVs244
p1417
(lp1418
F0.00245
aF2002.0
aF2002.0
asVs4114
p1419
(lp1420
F0.00152
aF1000.0
aF1000.0
asVs4115
p1421
(lp1422
F0.001349
aF1.0378
aF1.0378
asVvas
p1423
(lp1424
F0.001763
aF1.6439
aF1.6439
asVs161
p1425
(lp1426
F0.003203
aF2002.1
aF2002.1
asVs3111
p1427
(lp1428
F0.001736
aF7.4855
aF7.4855
asVs482
p1429
(lp1430
F0.002194
aF2643.9
aF2643.9
asVs4121
p1431
(lp1432
F0.000906
aF2643.9
aF2643.9
asVs233
p1433
(lp1434
F0.094648
aF9733400.0
aF9733400.0
asVvsumr
p1435
(lp1436
F0.001741
aF7.4855
aF7.4855
asVvtv
p1437
(lp1438
F0.000773
aF1000.0
aF1000.0
asVs128
p1439
(lp1440
F0.001882
aF2500.0
aF2500.0
asVs276
p1441
(lp1442
F0.002622
aF2643.9
aF2643.9
asVs277
p1443
(lp1444
F0.002194
aF1000.0
aF1000.0
asVs274
p1445
(lp1446
F0.003241
aF1003600.0
aF1003600.0
asVs275
p1447
(lp1448
F0.070108
aF1000000.0
aF1000000.0
asVs272
p1449
(lp1450
F0.003294
aF5287.9
aF5287.9
asVs273
p1451
(lp1452
F0.00287
aF3001.0
aF3001.0
asVs271
p1453
(lp1454
F0.002214
aF2643.9
aF2643.9
asVs278
p1455
(lp1456
F0.003379
aF2009.1
aF2009.1
asVs279
p1457
(lp1458
F0.003331
aF2010.8
aF2010.8
asVs232
p1459
(lp1460
F0.003395
aF1000000.0
aF1000000.0
asVs261
p1461
(lp1462
F0.002266
aF3289.5
aF3289.5
asVs341
p1463
(lp1464
F0.001526
aF7.4855
aF7.4855
asVs231
p1465
(lp1466
F0.044575
aF1821100.0
aF1821100.0
asVs414
p1467
(lp1468
F0.069126
aF1836100.0
aF1836100.0
asVs234
p1469
(lp1470
F0.069333
aF1821100.0
aF1821100.0
asVs318
p1471
(lp1472
F0.002617
aF1002.0
aF1002.0
asVs342
p1473
(lp1474
F0.001526
aF7.4855
aF7.4855
asVs343
p1475
(lp1476
F0.039403
aF7485.5
aF7485.5
asVs432
p1477
(lp1478
F0.000767
aF2643.9
aF2643.9
asVs235
p1479
(lp1480
F0.044817
aF2362800.0
aF2362800.0
asVvpvtv
p1481
(lp1482
F0.000918
aF2643.9
aF2643.9
asVs123
p1483
(lp1484
F0.003133
aF1003.3
aF1003.3
asVs351
p1485
(lp1486
F0.006158
aF5001000.0
aF5001000.0
asVvpvts
p1487
(lp1488
F0.000769
aF2643.9
aF2643.9
asVvdotr
p1489
(lp1490
F0.001308
aF1.6439
aF1.6439
asVva
p1491
(lp1492
F0.000551
aF1.6439
aF1.6439
asVs121
p1493
(lp1494
F0.00077
aF1007.5
aF1007.5
asVs452
p1495
(lp1496
F0.001132
aF1000.5
aF1000.5
asVs126
p1497
(lp1498
F0.042471
aF1006900.0
aF1006900.0
asVs352
p1499
(lp1500
F0.003774
aF1.6439
aF1.6439
asVs2710
p1501
(lp1502
F0.003449
aF3003.3
aF3003.3
asVs2711
p1503
(lp1504
F0.002196
aF2643.9
aF2643.9
asVs2712
p1505
(lp1506
F0.002198
aF1643.9
aF1643.9
asVs127
p1507
(lp1508
F0.001857
aF1003.3
aF1003.3
asVs319
p1509
(lp1510
F0.003088
aF29.942
aF29.942
asVs152
p1511
(lp1512
F0.002074
aF2202.1
aF2202.1
asVs151
p1513
(lp1514
F0.000772
aF1007.5
aF1007.5
asVvpv
p1515
(lp1516
F0.000778
aF1643.9
aF1643.9
asVs2101
p1517
(lp1518
F0.071558
aF1001600.0
aF1001600.0
asVs124
p1519
(lp1520
F0.002456
aF501.64
aF501.64
asVs353
p1521
(lp1522
F0.005929
aF5001000.0
aF5001000.0
asVs2102
p1523
(lp1524
F0.035166
aF1000.0
aF1000.0
asVs311
p1525
(lp1526
F0.001745
aF7.4855
aF7.4855
asVs313
p1527
(lp1528
F0.001308
aF1.6439
aF1.6439
asVs312
p1529
(lp1530
F0.001746
aF1.001
aF1.001
asVs315
p1531
(lp1532
F0.002608
aF2.0
aF2.0
asVs314
p1533
(lp1534
F0.001741
aF1.0
aF1.0
asVs317
p1535
(lp1536
F0.00174
aF0.99005
aF0.99005
asVs316
p1537
(lp1538
F0.001308
aF0.001
aF0.001
asVs453
p1539
(lp1540
F0.001308
aF14.971
aF14.971
asVs119
p1541
(lp1542
F0.002552
aF1321200.0
aF1321200.0
asVs118
p1543
(lp1544
F0.00769
aF1001.0
aF1001.0
asVs423
p1545
(lp1546
F0.000914
aF1000.7
aF1000.7
asVs116
p1547
(lp1548
F0.00277
aF1000.0
aF1000.0
asVs115
p1549
(lp1550
F0.001629
aF999.0
aF999.0
asVs114
p1551
(lp1552
F0.009208
aF3629.0
aF3629.0
asVs221
p1553
(lp1554
F0.003499
aF1145700.0
aF1145700.0
asVs112
p1555
(lp1556
F0.001308
aF2636.4
aF2636.4
asVs111
p1557
(lp1558
F0.000886
aF1000.4
aF1000.4
asVs222
p1559
(lp1560
F0.003583
aF1000.0
aF1000.0
asVs451
p1561
(lp1562
F0.060932
aF1006.5
aF1006.5
asVs431
p1563
(lp1564
F0.000768
aF2643.9
aF2643.9
asVs4117
p1565
(lp1566
F0.001433
aF1000.4
aF1000.4
asVs424
p1567
(lp1568
F0.000875
aF1026.3
aF1026.3
asVvtvtv
p1569
(lp1570
F0.001016
aF1000.0
aF1000.0
asVs491
p1571
(lp1572
F0.002491
aF1001.6
aF1001.6
asVs321
p1573
(lp1574
F0.003038
aF1000.0
aF1000.0
asVs322
p1575
(lp1576
F0.004351
aF1000.0
aF1000.0
asVs323
p1577
(lp1578
F0.002657
aF4551.7
aF4551.7
asVs412
p1579
(lp1580
F0.001558
aF2643.9
aF2643.9
asVs413
p1581
(lp1582
F0.002516
aF3643.6
aF3643.6
asVs471
p1583
(lp1584
F4.1e-05
aF2004.9
aF2004.9
asVs2111
p1585
(lp1586
F0.005014
aF3.0
aF3.0
asVs442
p1587
(lp1588
F0.004799
aF2643.9
aF2643.9
asVvpvpv
p1589
(lp1590
F0.001016
aF1.6439
aF1.6439
asVs162
p1591
(lp1592
F0.001361
aF1007.5
aF1007.5
asVs291
p1593
(lp1594
F0.001755
aF1000.0
aF1000.0
asVs292
p1595
(lp1596
F0.002023
aF999.0
aF999.0
asVs293
p1597
(lp1598
F0.000877
aF1000.0
aF1000.0
asVs258
p1599
(lp1600
F0.003321
aF17.375
aF17.375
asVs3110
p1601
(lp1602
F0.002655
aF2002.0
aF2002.0
asVs3113
p1603
(lp1604
F0.001752
aF2.0
aF2.0
asVs3112
p1605
(lp1606
F0.001784
aF1639.7
aF1639.7
asVs211
p1607
(lp1608
F0.002438
aF1987.0
aF1987.0
asVs212
p1609
(lp1610
F0.00246
aF2006.5
aF2006.5
asVs141
p1611
(lp1612
F0.012106
aF1001600.0
aF1001600.0
asVs122
p1613
(lp1614
F0.001097
aF2643.9
aF2643.9
asVs251
p1615
(lp1616
F0.001326
aF1004.4
aF1004.4
asVs252
p1617
(lp1618
F0.001132
aF1999.0
aF1999.0
asVs253
p1619
(lp1620
F0.002746
aF1002000.0
aF1002000.0
asVs254
p1621
(lp1622
F0.001355
aF1000.0
aF1000.0
asVs255
p1623
(lp1624
F0.001994
aF999.0
aF999.0
asVs256
p1625
(lp1626
F0.040301
aF2001000.0
aF2001000.0
asVs125
p1627
(lp1628
F0.003244
aF2000000.0
aF2000000.0
asVs415
p1629
(lp1630
F0.001335
aF2641.9
aF2641.9
asVs422
p1631
(lp1632
F0.000909
aF502.87
aF502.87
asVvbor
p1633
(lp1634
F0.010768
aF180.04
aF180.04
asVs421
p1635
(lp1636
F0.000769
aF1007.5
aF1007.5
asVs257
p1637
(lp1638
F0.040338
aF2001000.0
aF2001000.0
assss.