(dp0
S'novec'
p1
(dp2
V10
p3
(dp4
Vvif
p5
(lp6
F0.000356
aF1.5498
aF1.5498
asVs481
p7
(lp8
F0.000712
aF154990.0
aF154990.0
asVs113
p9
(lp10
F6.8e-05
aF10.55
aF10.55
asVs4116
p11
(lp12
F0.000444
aF0.65398
aF0.65398
asVs411
p13
(lp14
F0.000365
aF154990.0
aF154990.0
asVs4112
p15
(lp16
F0.000391
aF292910.0
aF292910.0
asVs4113
p17
(lp18
F0.000354
aF11.55
aF11.55
asVs332
p19
(lp20
F0.000396
aF12.0
aF12.0
asVs331
p21
(lp22
F0.000362
aF10.0
aF10.0
asVs131
p23
(lp24
F0.000121
aF12.829
aF12.829
asVs132
p25
(lp26
F0.000243
aF100.96
aF100.96
asVs171
p27
(lp28
F0.000361
aF154990.0
aF154990.0
asVs173
p29
(lp30
F0.000142
aF11.464
aF11.464
asVs172
p31
(lp32
F0.000847
aF154990.0
aF154990.0
asVs175
p33
(lp34
F0.00083
aF12.829
aF12.829
asVs174
p35
(lp36
F0.000388
aF11.464
aF11.464
asVs281
p37
(lp38
F0.00069
aF10.0
aF10.0
asVs176
p39
(lp40
F0.001215
aF94864.0
aF94864.0
asVs243
p41
(lp42
F0.000889
aF703170.0
aF703170.0
asVs242
p43
(lp44
F0.000891
aF135.0
aF135.0
asVs241
p45
(lp46
F0.000865
aF20.0
aF20.0
asVs441
p47
(lp48
F0.001186
aF154990.0
aF154990.0
asVvag
p49
(lp50
F0.000177
aF1.5498
aF1.5498
asVs443
p51
(lp52
F0.00068
aF154990.0
aF154990.0
asVs244
p53
(lp54
F0.000606
aF21.9
aF21.9
asVs4114
p55
(lp56
F0.000684
aF10.64
aF10.64
asVs4115
p57
(lp58
F0.000506
aF0.94449
aF0.94449
asVvas
p59
(lp60
F0.000217
aF1.5498
aF1.5498
asVs161
p61
(lp62
F0.000896
aF21.88
aF21.88
asVs3111
p63
(lp64
F0.000918
aF2.929
aF2.929
asVs482
p65
(lp66
F0.000641
aF154990.0
aF154990.0
asVs4121
p67
(lp68
F0.000324
aF154990.0
aF154990.0
asVs233
p69
(lp70
F0.001789
aF318.99
aF318.99
asVvsumr
p71
(lp72
F6.9e-05
aF2.929
aF2.929
asVvtv
p73
(lp74
F0.000175
aF10.0
aF10.0
asVs128
p75
(lp76
F0.000431
aF25.0
aF25.0
asVs276
p77
(lp78
F0.000967
aF154990.0
aF154990.0
asVs277
p79
(lp80
F0.00029
aF10.0
aF10.0
asVs274
p81
(lp82
F0.001098
aF1155000.0
aF1155000.0
asVs275
p83
(lp84
F0.001349
aF100.0
aF100.0
asVs272
p85
(lp86
F0.000895
aF309970.0
aF309970.0
asVs273
p87
(lp88
F0.0011
aF31.308
aF31.308
asVs271
p89
(lp90
F0.000498
aF154990.0
aF154990.0
asVs278
p91
(lp92
F0.001137
aF24.479
aF24.479
asVs279
p93
(lp94
F0.001067
aF25.777
aF25.777
asVs232
p95
(lp96
F0.001105
aF100.0
aF100.0
asVs261
p97
(lp98
F0.000628
aF208970.0
aF208970.0
asVs341
p99
(lp100
F0.000362
aF2.929
aF2.929
asVs231
p101
(lp102
F0.000862
aF169.74
aF169.74
asVs414
p103
(lp104
F0.001415
aF228.32
aF228.32
asVs234
p105
(lp106
F0.001431
aF169.74
aF169.74
asVs318
p107
(lp108
F0.000612
aF12.0
aF12.0
asVs342
p109
(lp110
F0.000536
aF2.929
aF2.929
asVs343
p111
(lp112
F0.001168
aF29.29
aF29.29
asVs432
p113
(lp114
F0.000177
aF154990.0
aF154990.0
asVs235
p115
(lp116
F0.001218
aF502590.0
aF502590.0
asVvpvtv
p117
(lp118
F0.00036
aF154990.0
aF154990.0
asVs123
p119
(lp120
F0.000785
aF12.927
aF12.927
asVs351
p121
(lp122
F0.00056
aF5000000.0
aF5000000.0
asVvpvts
p123
(lp124
F0.000211
aF154990.0
aF154990.0
asVvdotr
p125
(lp126
F0.000471
aF1.5498
aF1.5498
asVva
p127
(lp128
F0.00011
aF1.5498
aF1.5498
asVs121
p129
(lp130
F0.000397
aF12.829
aF12.829
asVs452
p131
(lp132
F0.000599
aF10.0
aF10.0
asVs126
p133
(lp134
F0.001203
aF122.58
aF122.58
asVs352
p135
(lp136
F0.000356
aF1.5498
aF1.5498
asVs2710
p137
(lp138
F0.001146
aF33.1
aF33.1
asVs2711
p139
(lp140
F0.000686
aF154990.0
aF154990.0
asVs2712
p141
(lp142
F0.00068
aF54987.0
aF54987.0
asVs127
p143
(lp144
F0.000367
aF12.927
aF12.927
asVs319
p145
(lp146
F0.001441
aF11.716
aF11.716
asVs152
p147
(lp148
F0.002736
aF119760.0
aF119760.0
asVs151
p149
(lp150
F0.000336
aF12.829
aF12.829
asVvpv
p151
(lp152
F0.000175
aF154980.0
aF154980.0
asVs2101
p153
(lp154
F0.00045
aF155080.0
aF155080.0
asVs124
p155
(lp156
F0.000426
aF6.4636
aF6.4636
asVs353
p157
(lp158
F0.001322
aF5000000.0
aF5000000.0
asVs2102
p159
(lp160
F0.000812
aF10.0
aF10.0
asVs311
p161
(lp162
F6.1e-05
aF2.929
aF2.929
asVs313
p163
(lp164
F0.000483
aF1.5498
aF1.5498
asVs312
p165
(lp166
F8.9e-05
aF1.0
aF1.0
asVs315
p167
(lp168
F0.000606
aF2.0
aF2.0
asVs314
p169
(lp170
F5e-05
aF1.0
aF1.0
asVs317
p171
(lp172
F0.000852
aF0.9999
aF0.9999
asVs316
p173
(lp174
F4.6e-05
aF0.1
aF0.1
asVs453
p175
(lp176
F0.000262
aF5.8579
aF5.8579
asVs119
p177
(lp178
F0.000593
aF122.58
aF122.58
asVs118
p179
(lp180
F0.002232
aF10.924
aF10.924
asVs423
p181
(lp182
F0.000145
aF10.54
aF10.54
asVs116
p183
(lp184
F-0.000472
aF10.0
aF10.0
asVs115
p185
(lp186
F0.001035
aF9.1237
aF9.1237
asVs114
p187
(lp188
F0.00211
aF29.64
aF29.64
asVs221
p189
(lp190
F0.000822
aF466900.0
aF466900.0
asVs112
p191
(lp192
F0.000341
aF22.569
aF22.569
asVs111
p193
(lp194
F1.1e-05
aF10.366
aF10.366
asVs222
p195
(lp196
F0.001066
aF10.0
aF10.0
asVs451
p197
(lp198
F0.010943
aF12.007
aF12.007
asVs431
p199
(lp200
F0.000177
aF154990.0
aF154990.0
asVs4117
p201
(lp202
F0.000755
aF10.241
aF10.241
asVs424
p203
(lp204
F0.000179
aF10.54
aF10.54
asVvtvtv
p205
(lp206
F0.000426
aF10.0
aF10.0
asVs491
p207
(lp208
F0.000509
aF11.55
aF11.55
asVs321
p209
(lp210
F0.00032
aF10.0
aF10.0
asVs322
p211
(lp212
F0.000767
aF10.0
aF10.0
asVs323
p213
(lp214
F0.001164
aF35.924
aF35.924
asVs412
p215
(lp216
F0.000509
aF154990.0
aF154990.0
asVs413
p217
(lp218
F0.000767
aF154000.0
aF154000.0
asVs471
p219
(lp220
F2e-06
aF24.649
aF24.649
asVs2111
p221
(lp222
F0.000481
aF3.0
aF3.0
asVs442
p223
(lp224
F0.00132
aF154990.0
aF154990.0
asVvpvpv
p225
(lp226
F0.000414
aF1.5498
aF1.5498
asVs162
p227
(lp228
F0.000321
aF12.829
aF12.829
asVs291
p229
(lp230
F0.000594
aF10.0
aF10.0
asVs292
p231
(lp232
F0.000856
aF9.99
aF9.99
asVs293
p233
(lp234
F0.000252
aF10.0
aF10.0
asVs258
p235
(lp236
F0.001104
aF8.253
aF8.253
asVs3110
p237
(lp238
F0.001283
aF22.0
aF22.0
asVs3113
p239
(lp240
F0.000156
aF2.0
aF2.0
asVs3112
p241
(lp242
F0.000326
aF15.668
aF15.668
asVs211
p243
(lp244
F0.000591
aF15.974
aF15.974
asVs212
p245
(lp246
F0.000536
aF90013.0
aF90013.0
asVs141
p247
(lp248
F0.000798
aF141280.0
aF141280.0
asVs122
p249
(lp250
F0.000757
aF154990.0
aF154990.0
asVs251
p251
(lp252
F0.000444
aF14.182
aF14.182
asVs252
p253
(lp254
F0.000346
aF19.0
aF19.0
asVs253
p255
(lp256
F0.000959
aF985370.0
aF985370.0
asVs254
p257
(lp258
F0.000387
aF10.0
aF10.0
asVs255
p259
(lp260
F0.000513
aF9.99
aF9.99
asVs256
p261
(lp262
F0.001072
aF210.0
aF210.0
asVs125
p263
(lp264
F0.000862
aF200.0
aF200.0
asVs415
p265
(lp266
F0.000406
aF153980.0
aF153980.0
asVs422
p267
(lp268
F0.000249
aF6.6983
aF6.6983
asVvbor
p269
(lp270
F0.007658
aF180.04
aF180.04
asVs421
p271
(lp272
F0.000201
aF12.829
aF12.829
asVs257
p273
(lp274
F0.000963
aF210.0
aF210.0
assV100
p275
(dp276
Vvif
p277
(lp278
F0.000628
aF1.635
aF1.635
asVs481
p279
(lp280
F0.001095
aF16450.0
aF16450.0
asVs113
p281
(lp282
F0.000356
aF100.63
aF100.63
asVs4116
p283
(lp284
F0.001497
aF0.74717
aF0.74717
asVs411
p285
(lp286
F0.000522
aF16450.0
aF16450.0
asVs4112
p287
(lp288
F0.000558
aF51974.0
aF51974.0
asVs4113
p289
(lp290
F0.000674
aF101.63
aF101.63
asVs332
p291
(lp292
F0.000827
aF102.0
aF102.0
asVs331
p293
(lp294
F0.000763
aF100.0
aF100.0
asVs131
p295
(lp296
F0.000377
aF105.18
aF105.18
asVs132
p297
(lp298
F0.000646
aF10002.0
aF10002.0
asVs171
p299
(lp300
F0.000455
aF16450.0
aF16450.0
asVs173
p301
(lp302
F0.000399
aF101.63
aF101.63
asVs172
p303
(lp304
F0.000582
aF16450.0
aF16450.0
asVs175
p305
(lp306
F0.000603
aF105.18
aF105.18
asVs174
p307
(lp308
F0.000475
aF101.63
aF101.63
asVs281
p309
(lp310
F0.000727
aF100.0
aF100.0
asVs176
p311
(lp312
F0.000441
aF1756.3
aF1756.3
asVs243
p313
(lp314
F0.001123
aF74453.0
aF74453.0
asVs242
p315
(lp316
F0.002323
aF14850.0
aF14850.0
asVs241
p317
(lp318
F0.001031
aF200.0
aF200.0
asVs441
p319
(lp320
F0.001656
aF16450.0
aF16450.0
asVvag
p321
(lp322
F0.000355
aF1.635
aF1.635
asVs443
p323
(lp324
F0.000919
aF16450.0
aF16450.0
asVs244
p325
(lp326
F0.000868
aF201.99
aF201.99
asVs4114
p327
(lp328
F0.000791
aF100.1
aF100.1
asVs4115
p329
(lp330
F0.001453
aF1.0289
aF1.0289
asVvas
p331
(lp332
F0.000487
aF1.635
aF1.635
asVs161
p333
(lp334
F0.001453
aF202.04
aF202.04
asVs3111
p335
(lp336
F0.002698
aF5.1874
aF5.1874
asVs482
p337
(lp338
F0.000941
aF16450.0
aF16450.0
asVs4121
p339
(lp340
F0.000523
aF16450.0
aF16450.0
asVs233
p341
(lp342
F0.003068
aF63220.0
aF63220.0
asVvsumr
p343
(lp344
F0.000832
aF5.1874
aF5.1874
asVvtv
p345
(lp346
F0.000371
aF100.0
aF100.0
asVs128
p347
(lp348
F0.000835
aF250.0
aF250.0
asVs276
p349
(lp350
F0.001233
aF16450.0
aF16450.0
asVs277
p351
(lp352
F0.000752
aF100.0
aF100.0
asVs274
p353
(lp354
F0.001461
aF1016600.0
aF1016600.0
asVs275
p355
(lp356
F0.003476
aF10000.0
aF10000.0
asVs272
p357
(lp358
F0.001264
aF32900.0
aF32900.0
asVs273
p359
(lp360
F0.001542
aF301.05
aF301.05
asVs271
p361
(lp362
F0.000915
aF16450.0
aF16450.0
asVs278
p363
(lp364
F0.001606
aF206.82
aF206.82
asVs279
p365
(lp366
F0.001457
aF208.48
aF208.48
asVs232
p367
(lp368
F0.001487
aF10000.0
aF10000.0
asVs261
p369
(lp370
F0.00084
aF22800.0
aF22800.0
asVs341
p371
(lp372
F0.000739
aF5.1874
aF5.1874
asVs231
p373
(lp374
F0.001572
aF18093.0
aF18093.0
asVs414
p375
(lp376
F0.003508
aF19131.0
aF19131.0
asVs234
p377
(lp378
F0.003503
aF18093.0
aF18093.0
asVs318
p379
(lp380
F0.000843
aF102.0
aF102.0
asVs342
p381
(lp382
F0.000883
aF5.1874
aF5.1874
asVs343
p383
(lp384
F0.001452
aF518.74
aF518.74
asVs432
p385
(lp386
F0.000372
aF16450.0
aF16450.0
asVs235
p387
(lp388
F0.002067
aF554110.0
aF554110.0
asVvpvtv
p389
(lp390
F0.000523
aF16450.0
aF16450.0
asVs123
p391
(lp392
F0.001485
aF103.25
aF103.25
asVs351
p393
(lp394
F0.001899
aF5000100.0
aF5000100.0
asVvpvts
p395
(lp396
F0.000383
aF16450.0
aF16450.0
asVvdotr
p397
(lp398
F0.001705
aF1.635
aF1.635
asVva
p399
(lp400
F0.00038
aF1.635
aF1.635
asVs121
p401
(lp402
F0.000529
aF105.18
aF105.18
asVs452
p403
(lp404
F0.000782
aF100.01
aF100.01
asVs126
p405
(lp406
F0.002226
aF10460.0
aF10460.0
asVs352
p407
(lp408
F0.003784
aF1.635
aF1.635
asVs2710
p409
(lp410
F0.001318
aF303.27
aF303.27
asVs2711
p411
(lp412
F0.001017
aF16450.0
aF16450.0
asVs2712
p413
(lp414
F0.001019
aF6449.8
aF6449.8
asVs127
p415
(lp416
F0.001162
aF103.25
aF103.25
asVs319
p417
(lp418
F0.002872
aF20.75
aF20.75
asVs152
p419
(lp420
F0.003261
aF12120.0
aF12120.0
asVs151
p421
(lp422
F0.000408
aF105.18
aF105.18
asVvpv
p423
(lp424
F0.000377
aF16350.0
aF16350.0
asVs2101
p425
(lp426
F0.001402
aF26350.0
aF26350.0
asVs124
p427
(lp428
F0.001129
aF51.625
aF51.625
asVs353
p429
(lp430
F0.002838
aF5000100.0
aF5000100.0
asVs2102
p431
(lp432
F0.000897
aF100.0
aF100.0
asVs311
p433
(lp434
F0.000829
aF5.1874
aF5.1874
asVs313
p435
(lp436
F0.001714
aF1.635
aF1.635
asVs312
p437
(lp438
F0.000835
aF1.0001
aF1.0001
asVs315
p439
(lp440
F0.000808
aF2.0
aF2.0
asVs314
p441
(lp442
F0.000815
aF1.0
aF1.0
asVs317
p443
(lp444
F0.00071
aF0.999
aF0.999
asVs316
p445
(lp446
F0.000814
aF0.01
aF0.01
asVs453
p447
(lp448
F0.000955
aF10.375
aF10.375
asVs119
p449
(lp450
F0.000604
aF13099.0
aF13099.0
asVs118
p451
(lp452
F0.002352
aF100.99
aF100.99
asVs423
p453
(lp454
F0.000385
aF100.64
aF100.64
asVs116
p455
(lp456
F0.001754
aF100.0
aF100.0
asVs115
p457
(lp458
F0.000719
aF99.013
aF99.013
asVs114
p459
(lp460
F0.001023
aF353.12
aF353.12
asVs221
p461
(lp462
F0.002295
aF611280.0
aF611280.0
asVs112
p463
(lp464
F0.000408
aF258.31
aF258.31
asVs111
p465
(lp466
F0.000378
aF100.41
aF100.41
asVs222
p467
(lp468
F0.002677
aF100.0
aF100.0
asVs451
p469
(lp470
F0.010123
aF104.22
aF104.22
asVs431
p471
(lp472
F0.000371
aF16450.0
aF16450.0
asVs4117
p473
(lp474
F0.001047
aF100.42
aF100.42
asVs424
p475
(lp476
F0.000388
aF103.25
aF103.25
asVvtvtv
p477
(lp478
F0.000545
aF100.0
aF100.0
asVs491
p479
(lp480
F0.000843
aF101.63
aF101.63
asVs321
p481
(lp482
F0.001767
aF100.0
aF100.0
asVs322
p483
(lp484
F0.003403
aF100.0
aF100.0
asVs323
p485
(lp486
F0.003627
aF439.15
aF439.15
asVs412
p487
(lp488
F0.000808
aF16450.0
aF16450.0
asVs413
p489
(lp490
F0.001422
aF16548.0
aF16548.0
asVs471
p491
(lp492
F0.000383
aF204.9
aF204.9
asVs2111
p493
(lp494
F0.001108
aF3.0
aF3.0
asVs442
p495
(lp496
F0.001888
aF16450.0
aF16450.0
asVvpvpv
p497
(lp498
F0.000668
aF1.635
aF1.635
asVs162
p499
(lp500
F0.000524
aF105.18
aF105.18
asVs291
p501
(lp502
F0.000701
aF100.0
aF100.0
asVs292
p503
(lp504
F0.001117
aF99.9
aF99.9
asVs293
p505
(lp506
F0.000318
aF100.0
aF100.0
asVs258
p507
(lp508
F0.001458
aF12.779
aF12.779
asVs3110
p509
(lp510
F0.000905
aF202.0
aF202.0
asVs3113
p511
(lp512
F0.001022
aF2.0
aF2.0
asVs3112
p513
(lp514
F0.001124
aF161.58
aF161.58
asVs211
p515
(lp516
F0.000815
aF191.55
aF191.55
asVs212
p517
(lp518
F0.000765
aF10005.0
aF10005.0
asVs141
p519
(lp520
F0.000546
aF25995.0
aF25995.0
asVs122
p521
(lp522
F0.000739
aF16450.0
aF16450.0
asVs251
p523
(lp524
F0.000604
aF104.35
aF104.35
asVs252
p525
(lp526
F0.000511
aF199.0
aF199.0
asVs253
p527
(lp528
F0.00133
aF999940.0
aF999940.0
asVs254
p529
(lp530
F0.000477
aF100.0
aF100.0
asVs255
p531
(lp532
F0.000708
aF99.9
aF99.9
asVs256
p533
(lp534
F0.001944
aF20100.0
aF20100.0
asVs125
p535
(lp536
F0.001532
aF20000.0
aF20000.0
asVs415
p537
(lp538
F0.000947
aF16447.0
aF16447.0
asVs422
p539
(lp540
F0.00041
aF52.293
aF52.293
asVvbor
p541
(lp542
F0.008232
aF180.04
aF180.04
asVs421
p543
(lp544
F0.00039
aF105.18
aF105.18
asVs257
p545
(lp546
F0.001426
aF20100.0
aF20100.0
assV1000
p547
(dp548
Vvif
p549
(lp550
F0.000546
aF1.6439
aF1.6439
asVs481
p551
(lp552
F0.001076
aF2643.9
aF2643.9
asVs113
p553
(lp554
F0.00039
aF1000.6
aF1000.6
asVs4116
p555
(lp556
F0.001757
aF0.75617
aF0.75617
asVs411
p557
(lp558
F0.000542
aF2643.9
aF2643.9
asVs4112
p559
(lp560
F0.000628
aF8485.5
aF8485.5
asVs4113
p561
(lp562
F0.000725
aF1001.6
aF1001.6
asVs332
p563
(lp564
F0.000775
aF1002.0
aF1002.0
asVs331
p565
(lp566
F0.000719
aF1000.0
aF1000.0
asVs131
p567
(lp568
F0.00039
aF1007.5
aF1007.5
asVs132
p569
(lp570
F0.000712
aF1000000.0
aF1000000.0
asVs171
p571
(lp572
F0.000419
aF2643.9
aF2643.9
asVs173
p573
(lp574
F0.000415
aF1001.6
aF1001.6
asVs172
p575
(lp576
F0.000601
aF2643.9
aF2643.9
asVs175
p577
(lp578
F0.000597
aF1007.5
aF1007.5
asVs174
p579
(lp580
F0.000602
aF1001.6
aF1001.6
asVs281
p581
(lp582
F0.000742
aF1000.0
aF1000.0
asVs176
p583
(lp584
F0.000415
aF1023.1
aF1023.1
asVs243
p585
(lp586
F0.001259
aF9467.9
aF9467.9
asVs242
p587
(lp588
F0.002651
aF1498500.0
aF1498500.0
asVs241
p589
(lp590
F0.001049
aF2000.0
aF2000.0
asVs441
p591
(lp592
F0.001342
aF2643.9
aF2643.9
asVvag
p593
(lp594
F0.000394
aF1.6439
aF1.6439
asVs443
p595
(lp596
F0.000841
aF2643.9
aF2643.9
asVs244
p597
(lp598
F0.000843
aF2002.0
aF2002.0
asVs4114
p599
(lp600
F0.000879
aF1000.0
aF1000.0
asVs4115
p601
(lp602
F0.001755
aF1.0378
aF1.0378
asVvas
p603
(lp604
F0.000543
aF1.6439
aF1.6439
asVs161
p605
(lp606
F0.001099
aF2002.1
aF2002.1
asVs3111
p607
(lp608
F0.00317
aF7.4855
aF7.4855
asVs482
p609
(lp610
F0.000844
aF2643.9
aF2643.9
asVs4121
p611
(lp612
F0.000543
aF2643.9
aF2643.9
asVs233
p613
(lp614
F0.017599
aF9733400.0
aF9733400.0
asVvsumr
p615
(lp616
F0.001285
aF7.4855
aF7.4855
asVvtv
p617
(lp618
F0.000389
aF1000.0
aF1000.0
asVs128
p619
(lp620
F0.000897
aF2500.0
aF2500.0
asVs276
p621
(lp622
F0.001098
aF2643.9
aF2643.9
asVs277
p623
(lp624
F0.000717
aF1000.0
aF1000.0
asVs274
p625
(lp626
F0.001829
aF1003600.0
aF1003600.0
asVs275
p627
(lp628
F0.017791
aF1000000.0
aF1000000.0
asVs272
p629
(lp630
F0.001294
aF5287.9
aF5287.9
asVs273
p631
(lp632
F0.001534
aF3001.0
aF3001.0
asVs271
p633
(lp634
F0.000893
aF2643.9
aF2643.9
asVs278
p635
(lp636
F0.001615
aF2009.1
aF2009.1
asVs279
p637
(lp638
F0.001549
aF2010.8
aF2010.8
asVs232
p639
(lp640
F0.002063
aF1000000.0
aF1000000.0
asVs261
p641
(lp642
F0.000881
aF3289.5
aF3289.5
asVs341
p643
(lp644
F0.000717
aF7.4855
aF7.4855
asVs231
p645
(lp646
F0.006138
aF1821100.0
aF1821100.0
asVs414
p647
(lp648
F0.016459
aF1836100.0
aF1836100.0
asVs234
p649
(lp650
F0.017608
aF1821100.0
aF1821100.0
asVs318
p651
(lp652
F0.000727
aF1002.0
aF1002.0
asVs342
p653
(lp654
F0.000838
aF7.4855
aF7.4855
asVs343
p655
(lp656
F0.005
aF7485.5
aF7485.5
asVs432
p657
(lp658
F0.000388
aF2643.9
aF2643.9
asVs235
p659
(lp660
F0.005532
aF2362800.0
aF2362800.0
asVvpvtv
p661
(lp662
F0.000545
aF2643.9
aF2643.9
asVs123
p663
(lp664
F0.001447
aF1003.3
aF1003.3
asVs351
p665
(lp666
F0.001952
aF5001000.0
aF5001000.0
asVvpvts
p667
(lp668
F0.000392
aF2643.9
aF2643.9
asVvdotr
p669
(lp670
F0.002263
aF1.6439
aF1.6439
asVva
p671
(lp672
F0.000363
aF1.6439
aF1.6439
asVs121
p673
(lp674
F0.000541
aF1007.5
aF1007.5
asVs452
p675
(lp676
F0.000808
aF1000.5
aF1000.5
asVs126
p677
(lp678
F0.006779
aF1006900.0
aF1006900.0
asVs352
p679
(lp680
F0.004896
aF1.6439
aF1.6439
asVs2710
p681
(lp682
F0.001761
aF3003.3
aF3003.3
asVs2711
p683
(lp684
F0.000959
aF2643.9
aF2643.9
asVs2712
p685
(lp686
F0.000959
aF1643.9
aF1643.9
asVs127
p687
(lp688
F0.001194
aF1003.3
aF1003.3
asVs319
p689
(lp690
F0.003184
aF29.942
aF29.942
asVs152
p691
(lp692
F0.003371
aF2202.1
aF2202.1
asVs151
p693
(lp694
F0.000412
aF1007.5
aF1007.5
asVvpv
p695
(lp696
F0.000389
aF1643.9
aF1643.9
asVs2101
p697
(lp698
F0.01672
aF1001600.0
aF1001600.0
asVs124
p699
(lp700
F0.001078
aF501.64
aF501.64
asVs353
p701
(lp702
F0.003184
aF5001000.0
aF5001000.0
asVs2102
p703
(lp704
F0.002311
aF1000.0
aF1000.0
asVs311
p705
(lp706
F0.001285
aF7.4855
aF7.4855
asVs313
p707
(lp708
F0.002258
aF1.6439
aF1.6439
asVs312
p709
(lp710
F0.001289
aF1.001
aF1.001
asVs315
p711
(lp712
F0.000724
aF2.0
aF2.0
asVs314
p713
(lp714
F0.001296
aF1.0
aF1.0
asVs317
p715
(lp716
F0.001162
aF0.99005
aF0.99005
asVs316
p717
(lp718
F0.001289
aF0.001
aF0.001
asVs453
p719
(lp720
F0.001084
aF14.971
aF14.971
asVs119
p721
(lp722
F0.000837
aF1321200.0
aF1321200.0
asVs118
p723
(lp724
F0.002418
aF1001.0
aF1001.0
asVs423
p725
(lp726
F0.000409
aF1000.7
aF1000.7
asVs116
p727
(lp728
F0.001942
aF1000.0
aF1000.0
asVs115
p729
(lp730
F0.000701
aF999.0
aF999.0
asVs114
p731
(lp732
F0.001837
aF3629.0
aF3629.0
asVs221
p733
(lp734
F0.002649
aF1145700.0
aF1145700.0
asVs112
p735
(lp736
F0.000382
aF2636.4
aF2636.4
asVs111
p737
(lp738
F0.000415
aF1000.4
aF1000.4
asVs222
p739
(lp740
F0.002888
aF1000.0
aF1000.0
asVs451
p741
(lp742
F0.010058
aF1006.5
aF1006.5
asVs431
p743
(lp744
F0.000389
aF2643.9
aF2643.9
asVs4117
p745
(lp746
F0.001077
aF1000.4
aF1000.4
asVs424
p747
(lp748
F0.000409
aF1026.3
aF1026.3
asVvtvtv
p749
(lp750
F0.000548
aF1000.0
aF1000.0
asVs491
p751
(lp752
F0.000995
aF1001.6
aF1001.6
asVs321
p753
(lp754
F0.002264
aF1000.0
aF1000.0
asVs322
p755
(lp756
F0.004038
aF1000.0
aF1000.0
asVs323
p757
(lp758
F0.004065
aF4551.7
aF4551.7
asVs412
p759
(lp760
F0.000803
aF2643.9
aF2643.9
asVs413
p761
(lp762
F0.001814
aF3643.6
aF3643.6
asVs471
p763
(lp764
F0.000355
aF2004.9
aF2004.9
asVs2111
p765
(lp766
F0.001317
aF3.0
aF3.0
asVs442
p767
(lp768
F0.001972
aF2643.9
aF2643.9
asVvpvpv
p769
(lp770
F0.000715
aF1.6439
aF1.6439
asVs162
p771
(lp772
F0.000546
aF1007.5
aF1007.5
asVs291
p773
(lp774
F0.000718
aF1000.0
aF1000.0
asVs292
p775
(lp776
F0.002543
aF999.0
aF999.0
asVs293
p777
(lp778
F0.000855
aF1000.0
aF1000.0
asVs258
p779
(lp780
F0.001688
aF17.375
aF17.375
asVs3110
p781
(lp782
F0.000729
aF2002.0
aF2002.0
asVs3113
p783
(lp784
F0.001319
aF2.0
aF2.0
asVs3112
p785
(lp786
F0.001356
aF1639.7
aF1639.7
asVs211
p787
(lp788
F0.00182
aF1987.0
aF1987.0
asVs212
p789
(lp790
F0.000839
aF2006.5
aF2006.5
asVs141
p791
(lp792
F0.002334
aF1001600.0
aF1001600.0
asVs122
p793
(lp794
F0.000638
aF2643.9
aF2643.9
asVs251
p795
(lp796
F0.000605
aF1004.4
aF1004.4
asVs252
p797
(lp798
F0.000512
aF1999.0
aF1999.0
asVs253
p799
(lp800
F0.001314
aF1002000.0
aF1002000.0
asVs254
p801
(lp802
F0.000458
aF1000.0
aF1000.0
asVs255
p803
(lp804
F0.000716
aF999.0
aF999.0
asVs256
p805
(lp806
F0.005598
aF2001000.0
aF2001000.0
asVs125
p807
(lp808
F0.002184
aF2000000.0
aF2000000.0
asVs415
p809
(lp810
F0.000898
aF2641.9
aF2641.9
asVs422
p811
(lp812
F0.000434
aF502.87
aF502.87
asVvbor
p813
(lp814
F0.008254
aF180.04
aF180.04
asVs421
p815
(lp816
F0.000409
aF1007.5
aF1007.5
asVs257
p817
(lp818
F0.005091
aF2001000.0
aF2001000.0
asssS'vec'
p819
(dp820
V10
p821
(dp822
Vvif
p823
(lp824
F0.000498
aF1.5498
aF1.5498
asVs481
p825
(lp826
F0.001145
aF154990.0
aF154990.0
asVs113
p827
(lp828
F0.000566
aF10.55
aF10.55
asVs4116
p829
(lp830
F0.000778
aF0.65398
aF0.65398
asVs411
p831
(lp832
F0.000584
aF154990.0
aF154990.0
asVs4112
p833
(lp834
F0.000823
aF292910.0
aF292910.0
asVs4113
p835
(lp836
F0.0009
aF11.55
aF11.55
asVs332
p837
(lp838
F0.000825
aF12.0
aF12.0
asVs331
p839
(lp840
F0.000788
aF10.0
aF10.0
asVs131
p841
(lp842
F0.000618
aF12.829
aF12.829
asVs132
p843
(lp844
F0.000491
aF100.96
aF100.96
asVs171
p845
(lp846
F0.000859
aF154990.0
aF154990.0
asVs173
p847
(lp848
F0.000996
aF11.464
aF11.464
asVs172
p849
(lp850
F0.001201
aF154990.0
aF154990.0
asVs175
p851
(lp852
F0.001012
aF12.829
aF12.829
asVs174
p853
(lp854
F0.001261
aF11.464
aF11.464
asVs281
p855
(lp856
F0.001161
aF10.0
aF10.0
asVs176
p857
(lp858
F0.001287
aF94864.0
aF94864.0
asVs243
p859
(lp860
F0.001275
aF703170.0
aF703170.0
asVs242
p861
(lp862
F0.001321
aF135.0
aF135.0
asVs241
p863
(lp864
F0.001249
aF20.0
aF20.0
asVs441
p865
(lp866
F0.001281
aF154990.0
aF154990.0
asVvag
p867
(lp868
F0.000679
aF1.5498
aF1.5498
asVs443
p869
(lp870
F0.000916
aF154990.0
aF154990.0
asVs244
p871
(lp872
F0.001053
aF21.9
aF21.9
asVs4114
p873
(lp874
F0.001379
aF10.64
aF10.64
asVs4115
p875
(lp876
F0.000934
aF0.94449
aF0.94449
asVvas
p877
(lp878
F0.000644
aF1.5498
aF1.5498
asVs161
p879
(lp880
F0.001284
aF21.88
aF21.88
asVs3111
p881
(lp882
F0.001336
aF2.929
aF2.929
asVs482
p883
(lp884
F0.001075
aF154990.0
aF154990.0
asVs4121
p885
(lp886
F0.000566
aF154990.0
aF154990.0
asVs233
p887
(lp888
F0.001748
aF318.99
aF318.99
asVvsumr
p889
(lp890
F0.000497
aF2.929
aF2.929
asVvtv
p891
(lp892
F0.000422
aF10.0
aF10.0
asVs128
p893
(lp894
F0.001332
aF25.0
aF25.0
asVs276
p895
(lp896
F0.001672
aF154990.0
aF154990.0
asVs277
p897
(lp898
F0.000788
aF10.0
aF10.0
asVs274
p899
(lp900
F0.001115
aF1155000.0
aF1155000.0
asVs275
p901
(lp902
F0.001435
aF100.0
aF100.0
asVs272
p903
(lp904
F0.001047
aF309970.0
aF309970.0
asVs273
p905
(lp906
F0.001089
aF31.308
aF31.308
asVs271
p907
(lp908
F0.000657
aF154990.0
aF154990.0
asVs278
p909
(lp910
F0.001263
aF24.479
aF24.479
asVs279
p911
(lp912
F0.001465
aF25.777
aF25.777
asVs232
p913
(lp914
F0.001206
aF100.0
aF100.0
asVs261
p915
(lp916
F0.001052
aF208970.0
aF208970.0
asVs341
p917
(lp918
F0.000809
aF2.929
aF2.929
asVs231
p919
(lp920
F0.000498
aF169.74
aF169.74
asVs414
p921
(lp922
F0.000643
aF228.32
aF228.32
asVs234
p923
(lp924
F0.000653
aF169.74
aF169.74
asVs318
p925
(lp926
F0.001079
aF12.0
aF12.0
asVs342
p927
(lp928
F0.000962
aF2.929
aF2.929
asVs343
p929
(lp930
F0.001193
aF29.29
aF29.29
asVs432
p931
(lp932
F0.000421
aF154990.0
aF154990.0
asVs235
p933
(lp934
F0.000715
aF502590.0
aF502590.0
asVvpvtv
p935
(lp936
F0.000572
aF154990.0
aF154990.0
asVs123
p937
(lp938
F0.001685
aF12.927
aF12.927
asVs351
p939
(lp940
F0.003393
aF5000000.0
aF5000000.0
asVvpvts
p941
(lp942
F0.000494
aF154990.0
aF154990.0
asVvdotr
p943
(lp944
F0.000639
aF1.5498
aF1.5498
asVva
p945
(lp946
F0.000511
aF1.5498
aF1.5498
asVs121
p947
(lp948
F0.000546
aF12.829
aF12.829
asVs452
p949
(lp950
F0.001539
aF10.0
aF10.0
asVs126
p951
(lp952
F0.001334
aF122.58
aF122.58
asVs352
p953
(lp954
F0.002982
aF1.5498
aF1.5498
asVs2710
p955
(lp956
F0.00142
aF33.1
aF33.1
asVs2711
p957
(lp958
F0.000648
aF154990.0
aF154990.0
asVs2712
p959
(lp960
F0.000932
aF54987.0
aF54987.0
asVs127
p961
(lp962
F0.001295
aF12.927
aF12.927
asVs319
p963
(lp964
F0.001884
aF11.716
aF11.716
asVs152
p965
(lp966
F0.003098
aF119760.0
aF119760.0
asVs151
p967
(lp968
F0.000806
aF12.829
aF12.829
asVvpv
p969
(lp970
F0.00047
aF154980.0
aF154980.0
asVs2101
p971
(lp972
F0.000867
aF155080.0
aF155080.0
asVs124
p973
(lp974
F0.001208
aF6.4636
aF6.4636
asVs353
p975
(lp976
F0.004127
aF5000000.0
aF5000000.0
asVs2102
p977
(lp978
F0.000441
aF10.0
aF10.0
asVs311
p979
(lp980
F0.000511
aF2.929
aF2.929
asVs313
p981
(lp982
F0.00064
aF1.5498
aF1.5498
asVs312
p983
(lp984
F0.00053
aF1.0
aF1.0
asVs315
p985
(lp986
F0.000814
aF2.0
aF2.0
asVs314
p987
(lp988
F0.000456
aF1.0
aF1.0
asVs317
p989
(lp990
F0.000471
aF0.9999
aF0.9999
asVs316
p991
(lp992
F0.000432
aF0.1
aF0.1
asVs453
p993
(lp994
F0.000795
aF5.8579
aF5.8579
asVs119
p995
(lp996
F0.000786
aF122.58
aF122.58
asVs118
p997
(lp998
F0.002764
aF10.924
aF10.924
asVs423
p999
(lp1000
F0.000572
aF10.54
aF10.54
asVs116
p1001
(lp1002
F0.001698
aF10.0
aF10.0
asVs115
p1003
(lp1004
F0.001331
aF9.1237
aF9.1237
asVs114
p1005
(lp1006
F0.001415
aF29.64
aF29.64
asVs221
p1007
(lp1008
F0.001263
aF466900.0
aF466900.0
asVs112
p1009
(lp1010
F0.000749
aF22.569
aF22.569
asVs111
p1011
(lp1012
F0.001071
aF10.366
aF10.366
asVs222
p1013
(lp1014
F0.001469
aF10.0
aF10.0
asVs451
p1015
(lp1016
F0.012018
aF12.007
aF12.007
asVs431
p1017
(lp1018
F0.000483
aF154990.0
aF154990.0
asVs4117
p1019
(lp1020
F0.001278
aF10.241
aF10.241
asVs424
p1021
(lp1022
F0.000611
aF10.54
aF10.54
asVvtvtv
p1023
(lp1024
F0.000603
aF10.0
aF10.0
asVs491
p1025
(lp1026
F0.000818
aF11.55
aF11.55
asVs321
p1027
(lp1028
F0.00076
aF10.0
aF10.0
asVs322
p1029
(lp1030
F0.001197
aF10.0
aF10.0
asVs323
p1031
(lp1032
F0.001573
aF35.924
aF35.924
asVs412
p1033
(lp1034
F0.000977
aF154990.0
aF154990.0
asVs413
p1035
(lp1036
F0.000845
aF154000.0
aF154000.0
asVs471
p1037
(lp1038
F0.00041
aF24.649
aF24.649
asVs2111
p1039
(lp1040
F0.000529
aF3.0
aF3.0
asVs442
p1041
(lp1042
F0.002162
aF154990.0
aF154990.0
asVvpvpv
p1043
(lp1044
F0.000566
aF1.5498
aF1.5498
asVs162
p1045
(lp1046
F0.000748
aF12.829
aF12.829
asVs291
p1047
(lp1048
F0.001074
aF10.0
aF10.0
asVs292
p1049
(lp1050
F0.001143
aF9.99
aF9.99
asVs293
p1051
(lp1052
F0.00068
aF10.0
aF10.0
asVs258
p1053
(lp1054
F0.001552
aF8.253
aF8.253
asVs3110
p1055
(lp1056
F0.001275
aF22.0
aF22.0
asVs3113
p1057
(lp1058
F0.000542
aF2.0
aF2.0
asVs3112
p1059
(lp1060
F0.000853
aF15.668
aF15.668
asVs211
p1061
(lp1062
F0.001007
aF15.974
aF15.974
asVs212
p1063
(lp1064
F0.000971
aF90013.0
aF90013.0
asVs141
p1065
(lp1066
F0.000917
aF141280.0
aF141280.0
asVs122
p1067
(lp1068
F0.001468
aF154990.0
aF154990.0
asVs251
p1069
(lp1070
F0.00062
aF14.182
aF14.182
asVs252
p1071
(lp1072
F0.00087
aF19.0
aF19.0
asVs253
p1073
(lp1074
F0.000966
aF985370.0
aF985370.0
asVs254
p1075
(lp1076
F0.000939
aF10.0
aF10.0
asVs255
p1077
(lp1078
F0.000999
aF9.99
aF9.99
asVs256
p1079
(lp1080
F0.001202
aF210.0
aF210.0
asVs125
p1081
(lp1082
F0.000814
aF200.0
aF200.0
asVs415
p1083
(lp1084
F0.000884
aF153980.0
aF153980.0
asVs422
p1085
(lp1086
F0.000667
aF6.6983
aF6.6983
asVvbor
p1087
(lp1088
F0.002593
aF180.04
aF180.04
asVs421
p1089
(lp1090
F0.000634
aF12.829
aF12.829
asVs257
p1091
(lp1092
F0.000975
aF210.0
aF210.0
assV100
p1093
(dp1094
Vvif
p1095
(lp1096
F0.000295
aF1.635
aF1.635
asVs481
p1097
(lp1098
F0.001398
aF16450.0
aF16450.0
asVs113
p1099
(lp1100
F0.000498
aF100.63
aF100.63
asVs4116
p1101
(lp1102
F0.000618
aF0.74717
aF0.74717
asVs411
p1103
(lp1104
F0.000309
aF16450.0
aF16450.0
asVs4112
p1105
(lp1106
F0.000665
aF51974.0
aF51974.0
asVs4113
p1107
(lp1108
F0.00088
aF101.63
aF101.63
asVs332
p1109
(lp1110
F0.002046
aF102.0
aF102.0
asVs331
p1111
(lp1112
F0.001923
aF100.0
aF100.0
asVs131
p1113
(lp1114
F0.000214
aF105.18
aF105.18
asVs132
p1115
(lp1116
F0.000362
aF10002.0
aF10002.0
asVs171
p1117
(lp1118
F0.0005
aF16450.0
aF16450.0
asVs173
p1119
(lp1120
F0.000473
aF101.63
aF101.63
asVs172
p1121
(lp1122
F0.000578
aF16450.0
aF16450.0
asVs175
p1123
(lp1124
F0.000582
aF105.18
aF105.18
asVs174
p1125
(lp1126
F0.000586
aF101.63
aF101.63
asVs281
p1127
(lp1128
F0.000863
aF100.0
aF100.0
asVs176
p1129
(lp1130
F0.000253
aF1756.3
aF1756.3
asVs243
p1131
(lp1132
F0.001165
aF74453.0
aF74453.0
asVs242
p1133
(lp1134
F0.002377
aF14850.0
aF14850.0
asVs241
p1135
(lp1136
F0.001105
aF200.0
aF200.0
asVs441
p1137
(lp1138
F0.001032
aF16450.0
aF16450.0
asVvag
p1139
(lp1140
F0.000513
aF1.635
aF1.635
asVs443
p1141
(lp1142
F0.000784
aF16450.0
aF16450.0
asVs244
p1143
(lp1144
F0.000908
aF201.99
aF201.99
asVs4114
p1145
(lp1146
F0.001398
aF100.1
aF100.1
asVs4115
p1147
(lp1148
F0.00069
aF1.0289
aF1.0289
asVvas
p1149
(lp1150
F0.000548
aF1.635
aF1.635
asVs161
p1151
(lp1152
F0.001382
aF202.04
aF202.04
asVs3111
p1153
(lp1154
F0.002742
aF5.1874
aF5.1874
asVs482
p1155
(lp1156
F0.001206
aF16450.0
aF16450.0
asVs4121
p1157
(lp1158
F0.000293
aF16450.0
aF16450.0
asVs233
p1159
(lp1160
F0.003079
aF63220.0
aF63220.0
asVvsumr
p1161
(lp1162
F0.000235
aF5.1874
aF5.1874
asVvtv
p1163
(lp1164
F0.000256
aF100.0
aF100.0
asVs128
p1165
(lp1166
F0.000954
aF250.0
aF250.0
asVs276
p1167
(lp1168
F0.000707
aF16450.0
aF16450.0
asVs277
p1169
(lp1170
F0.000828
aF100.0
aF100.0
asVs274
p1171
(lp1172
F0.000694
aF1016600.0
aF1016600.0
asVs275
p1173
(lp1174
F0.003551
aF10000.0
aF10000.0
asVs272
p1175
(lp1176
F0.000694
aF32900.0
aF32900.0
asVs273
p1177
(lp1178
F0.000683
aF301.05
aF301.05
asVs271
p1179
(lp1180
F0.000371
aF16450.0
aF16450.0
asVs278
p1181
(lp1182
F0.000816
aF206.82
aF206.82
asVs279
p1183
(lp1184
F0.001042
aF208.48
aF208.48
asVs232
p1185
(lp1186
F0.001532
aF10000.0
aF10000.0
asVs261
p1187
(lp1188
F0.000872
aF22800.0
aF22800.0
asVs341
p1189
(lp1190
F0.001881
aF5.1874
aF5.1874
asVs231
p1191
(lp1192
F0.000533
aF18093.0
aF18093.0
asVs414
p1193
(lp1194
F0.001073
aF19131.0
aF19131.0
asVs234
p1195
(lp1196
F0.000966
aF18093.0
aF18093.0
asVs318
p1197
(lp1198
F0.000963
aF102.0
aF102.0
asVs342
p1199
(lp1200
F0.00221
aF5.1874
aF5.1874
asVs343
p1201
(lp1202
F0.001727
aF518.74
aF518.74
asVs432
p1203
(lp1204
F0.000272
aF16450.0
aF16450.0
asVs235
p1205
(lp1206
F0.000518
aF554110.0
aF554110.0
asVvpvtv
p1207
(lp1208
F0.000291
aF16450.0
aF16450.0
asVs123
p1209
(lp1210
F0.001618
aF103.25
aF103.25
asVs351
p1211
(lp1212
F0.005103
aF5000100.0
aF5000100.0
asVvpvts
p1213
(lp1214
F0.000259
aF16450.0
aF16450.0
asVvdotr
p1215
(lp1216
F0.000385
aF1.635
aF1.635
asVva
p1217
(lp1218
F0.000522
aF1.635
aF1.635
asVs121
p1219
(lp1220
F0.000215
aF105.18
aF105.18
asVs452
p1221
(lp1222
F0.000468
aF100.01
aF100.01
asVs126
p1223
(lp1224
F0.002276
aF10460.0
aF10460.0
asVs352
p1225
(lp1226
F0.00392
aF1.635
aF1.635
asVs2710
p1227
(lp1228
F0.000869
aF303.27
aF303.27
asVs2711
p1229
(lp1230
F0.000352
aF16450.0
aF16450.0
asVs2712
p1231
(lp1232
F0.000366
aF6449.8
aF6449.8
asVs127
p1233
(lp1234
F0.000669
aF103.25
aF103.25
asVs319
p1235
(lp1236
F0.002462
aF20.75
aF20.75
asVs152
p1237
(lp1238
F0.003266
aF12120.0
aF12120.0
asVs151
p1239
(lp1240
F0.000478
aF105.18
aF105.18
asVvpv
p1241
(lp1242
F0.000273
aF16350.0
aF16350.0
asVs2101
p1243
(lp1244
F0.00144
aF26350.0
aF26350.0
asVs124
p1245
(lp1246
F0.001221
aF51.625
aF51.625
asVs353
p1247
(lp1248
F0.003767
aF5000100.0
aF5000100.0
asVs2102
p1249
(lp1250
F0.000288
aF100.0
aF100.0
asVs311
p1251
(lp1252
F0.000209
aF5.1874
aF5.1874
asVs313
p1253
(lp1254
F0.000323
aF1.635
aF1.635
asVs312
p1255
(lp1256
F0.000196
aF1.0001
aF1.0001
asVs315
p1257
(lp1258
F0.000823
aF2.0
aF2.0
asVs314
p1259
(lp1260
F0.000176
aF1.0
aF1.0
asVs317
p1261
(lp1262
F0.000157
aF0.999
aF0.999
asVs316
p1263
(lp1264
F0.000179
aF0.01
aF0.01
asVs453
p1265
(lp1266
F0.001268
aF10.375
aF10.375
asVs119
p1267
(lp1268
F0.000566
aF13099.0
aF13099.0
asVs118
p1269
(lp1270
F0.000898
aF100.99
aF100.99
asVs423
p1271
(lp1272
F0.000534
aF100.64
aF100.64
asVs116
p1273
(lp1274
F0.001984
aF100.0
aF100.0
asVs115
p1275
(lp1276
F0.00075
aF99.013
aF99.013
asVs114
p1277
(lp1278
F0.001177
aF353.12
aF353.12
asVs221
p1279
(lp1280
F0.002335
aF611280.0
aF611280.0
asVs112
p1281
(lp1282
F0.000416
aF258.31
aF258.31
asVs111
p1283
(lp1284
F0.000617
aF100.41
aF100.41
asVs222
p1285
(lp1286
F0.00271
aF100.0
aF100.0
asVs451
p1287
(lp1288
F0.009955
aF104.22
aF104.22
asVs431
p1289
(lp1290
F0.000292
aF16450.0
aF16450.0
asVs4117
p1291
(lp1292
F0.00116
aF100.42
aF100.42
asVs424
p1293
(lp1294
F0.000533
aF103.25
aF103.25
asVvtvtv
p1295
(lp1296
F0.000305
aF100.0
aF100.0
asVs491
p1297
(lp1298
F0.000733
aF101.63
aF101.63
asVs321
p1299
(lp1300
F0.001808
aF100.0
aF100.0
asVs322
p1301
(lp1302
F0.003438
aF100.0
aF100.0
asVs323
p1303
(lp1304
F0.006107
aF439.15
aF439.15
asVs412
p1305
(lp1306
F0.001051
aF16450.0
aF16450.0
asVs413
p1307
(lp1308
F0.000687
aF16548.0
aF16548.0
asVs471
p1309
(lp1310
F0.001007
aF204.9
aF204.9
asVs2111
p1311
(lp1312
F0.001107
aF3.0
aF3.0
asVs442
p1313
(lp1314
F0.002795
aF16450.0
aF16450.0
asVvpvpv
p1315
(lp1316
F0.0003
aF1.635
aF1.635
asVs162
p1317
(lp1318
F0.000569
aF105.18
aF105.18
asVs291
p1319
(lp1320
F0.000838
aF100.0
aF100.0
asVs292
p1321
(lp1322
F0.000845
aF99.9
aF99.9
asVs293
p1323
(lp1324
F0.000368
aF100.0
aF100.0
asVs258
p1325
(lp1326
F0.001509
aF12.779
aF12.779
asVs3110
p1327
(lp1328
F0.000928
aF202.0
aF202.0
asVs3113
p1329
(lp1330
F0.000191
aF2.0
aF2.0
asVs3112
p1331
(lp1332
F0.001394
aF161.58
aF161.58
asVs211
p1333
(lp1334
F0.000893
aF191.55
aF191.55
asVs212
p1335
(lp1336
F0.000825
aF10005.0
aF10005.0
asVs141
p1337
(lp1338
F0.000581
aF25995.0
aF25995.0
asVs122
p1339
(lp1340
F0.000575
aF16450.0
aF16450.0
asVs251
p1341
(lp1342
F0.000279
aF104.35
aF104.35
asVs252
p1343
(lp1344
F0.000727
aF199.0
aF199.0
asVs253
p1345
(lp1346
F0.00062
aF999940.0
aF999940.0
asVs254
p1347
(lp1348
F0.000725
aF100.0
aF100.0
asVs255
p1349
(lp1350
F0.000813
aF99.9
aF99.9
asVs256
p1351
(lp1352
F0.001962
aF20100.0
aF20100.0
asVs125
p1353
(lp1354
F0.001315
aF20000.0
aF20000.0
asVs415
p1355
(lp1356
F0.001226
aF16447.0
aF16447.0
asVs422
p1357
(lp1358
F0.000553
aF52.293
aF52.293
asVvbor
p1359
(lp1360
F0.002614
aF180.04
aF180.04
asVs421
p1361
(lp1362
F0.000293
aF105.18
aF105.18
asVs257
p1363
(lp1364
F0.001418
aF20100.0
aF20100.0
assV1000
p1365
(dp1366
Vvif
p1367
(lp1368
F0.000187
aF1.6439
aF1.6439
asVs481
p1369
(lp1370
F0.00108
aF2643.9
aF2643.9
asVs113
p1371
(lp1372
F0.000453
aF1000.6
aF1000.6
asVs4116
p1373
(lp1374
F0.000494
aF0.75617
aF0.75617
asVs411
p1375
(lp1376
F0.000276
aF2643.9
aF2643.9
asVs4112
p1377
(lp1378
F0.000505
aF8485.5
aF8485.5
asVs4113
p1379
(lp1380
F0.000756
aF1001.6
aF1001.6
asVs332
p1381
(lp1382
F0.000777
aF1002.0
aF1002.0
asVs331
p1383
(lp1384
F0.000724
aF1000.0
aF1000.0
asVs131
p1385
(lp1386
F0.000262
aF1007.5
aF1007.5
asVs132
p1387
(lp1388
F0.00046
aF1000000.0
aF1000000.0
asVs171
p1389
(lp1390
F0.000516
aF2643.9
aF2643.9
asVs173
p1391
(lp1392
F0.000518
aF1001.6
aF1001.6
asVs172
p1393
(lp1394
F0.000685
aF2643.9
aF2643.9
asVs175
p1395
(lp1396
F0.000683
aF1007.5
aF1007.5
asVs174
p1397
(lp1398
F0.000744
aF1001.6
aF1001.6
asVs281
p1399
(lp1400
F0.000784
aF1000.0
aF1000.0
asVs176
p1401
(lp1402
F0.000283
aF1023.1
aF1023.1
asVs243
p1403
(lp1404
F0.001263
aF9467.9
aF9467.9
asVs242
p1405
(lp1406
F0.002649
aF1498500.0
aF1498500.0
asVs241
p1407
(lp1408
F0.001057
aF2000.0
aF2000.0
asVs441
p1409
(lp1410
F0.000855
aF2643.9
aF2643.9
asVvag
p1411
(lp1412
F0.000424
aF1.6439
aF1.6439
asVs443
p1413
(lp1414
F0.000535
aF2643.9
aF2643.9
asVs244
p1415
(lp1416
F0.00085
aF2002.0
aF2002.0
asVs4114
p1417
(lp1418
F0.0011
aF1000.0
aF1000.0
asVs4115
p1419
(lp1420
F0.000496
aF1.0378
aF1.0378
asVvas
p1421
(lp1422
F0.000459
aF1.6439
aF1.6439
asVs161
p1423
(lp1424
F0.001342
aF2002.1
aF2002.1
asVs3111
p1425
(lp1426
F0.003171
aF7.4855
aF7.4855
asVs482
p1427
(lp1428
F0.000852
aF2643.9
aF2643.9
asVs4121
p1429
(lp1430
F0.000259
aF2643.9
aF2643.9
asVs233
p1431
(lp1432
F0.009058
aF9733400.0
aF9733400.0
asVvsumr
p1433
(lp1434
F0.000136
aF7.4855
aF7.4855
asVvtv
p1435
(lp1436
F0.000192
aF1000.0
aF1000.0
asVs128
p1437
(lp1438
F0.001117
aF2500.0
aF2500.0
asVs276
p1439
(lp1440
F0.000641
aF2643.9
aF2643.9
asVs277
p1441
(lp1442
F0.00075
aF1000.0
aF1000.0
asVs274
p1443
(lp1444
F0.001108
aF1003600.0
aF1003600.0
asVs275
p1445
(lp1446
F0.005563
aF1000000.0
aF1000000.0
asVs272
p1447
(lp1448
F0.000714
aF5287.9
aF5287.9
asVs273
p1449
(lp1450
F0.000677
aF3001.0
aF3001.0
asVs271
p1451
(lp1452
F0.000319
aF2643.9
aF2643.9
asVs278
p1453
(lp1454
F0.001006
aF2009.1
aF2009.1
asVs279
p1455
(lp1456
F0.00103
aF2010.8
aF2010.8
asVs232
p1457
(lp1458
F0.002445
aF1000000.0
aF1000000.0
asVs261
p1459
(lp1460
F0.000884
aF3289.5
aF3289.5
asVs341
p1461
(lp1462
F0.000723
aF7.4855
aF7.4855
asVs231
p1463
(lp1464
F0.000762
aF1821100.0
aF1821100.0
asVs414
p1465
(lp1466
F0.000964
aF1836100.0
aF1836100.0
asVs234
p1467
(lp1468
F0.000999
aF1821100.0
aF1821100.0
asVs318
p1469
(lp1470
F0.000866
aF1002.0
aF1002.0
asVs342
p1471
(lp1472
F0.00085
aF7.4855
aF7.4855
asVs343
p1473
(lp1474
F0.002631
aF7485.5
aF7485.5
asVs432
p1475
(lp1476
F0.000194
aF2643.9
aF2643.9
asVs235
p1477
(lp1478
F0.000712
aF2362800.0
aF2362800.0
asVvpvtv
p1479
(lp1480
F0.000261
aF2643.9
aF2643.9
asVs123
p1481
(lp1482
F0.001776
aF1003.3
aF1003.3
asVs351
p1483
(lp1484
F0.004463
aF5001000.0
aF5001000.0
asVvpvts
p1485
(lp1486
F0.000193
aF2643.9
aF2643.9
asVvdotr
p1487
(lp1488
F0.000228
aF1.6439
aF1.6439
asVva
p1489
(lp1490
F0.000381
aF1.6439
aF1.6439
asVs121
p1491
(lp1492
F0.000287
aF1007.5
aF1007.5
asVs452
p1493
(lp1494
F0.000302
aF1000.5
aF1000.5
asVs126
p1495
(lp1496
F0.005082
aF1006900.0
aF1006900.0
asVs352
p1497
(lp1498
F0.002996
aF1.6439
aF1.6439
asVs2710
p1499
(lp1500
F0.000844
aF3003.3
aF3003.3
asVs2711
p1501
(lp1502
F0.00031
aF2643.9
aF2643.9
asVs2712
p1503
(lp1504
F0.000304
aF1643.9
aF1643.9
asVs127
p1505
(lp1506
F0.000703
aF1003.3
aF1003.3
asVs319
p1507
(lp1508
F0.002674
aF29.942
aF29.942
asVs152
p1509
(lp1510
F0.003939
aF2202.1
aF2202.1
asVs151
p1511
(lp1512
F0.00051
aF1007.5
aF1007.5
asVvpv
p1513
(lp1514
F0.000209
aF1643.9
aF1643.9
asVs2101
p1515
(lp1516
F0.003669
aF1001600.0
aF1001600.0
asVs124
p1517
(lp1518
F0.001329
aF501.64
aF501.64
asVs353
p1519
(lp1520
F0.003042
aF5001000.0
aF5001000.0
asVs2102
p1521
(lp1522
F0.000454
aF1000.0
aF1000.0
asVs311
p1523
(lp1524
F0.000151
aF7.4855
aF7.4855
asVs313
p1525
(lp1526
F0.000227
aF1.6439
aF1.6439
asVs312
p1527
(lp1528
F0.000136
aF1.001
aF1.001
asVs315
p1529
(lp1530
F0.000749
aF2.0
aF2.0
asVs314
p1531
(lp1532
F0.000148
aF1.0
aF1.0
asVs317
p1533
(lp1534
F0.000142
aF0.99005
aF0.99005
asVs316
p1535
(lp1536
F0.000163
aF0.001
aF0.001
asVs453
p1537
(lp1538
F0.001136
aF14.971
aF14.971
asVs119
p1539
(lp1540
F0.000777
aF1321200.0
aF1321200.0
asVs118
p1541
(lp1542
F0.001279
aF1001.0
aF1001.0
asVs423
p1543
(lp1544
F0.000429
aF1000.7
aF1000.7
asVs116
p1545
(lp1546
F0.002367
aF1000.0
aF1000.0
asVs115
p1547
(lp1548
F0.000688
aF999.0
aF999.0
asVs114
p1549
(lp1550
F0.002218
aF3629.0
aF3629.0
asVs221
p1551
(lp1552
F0.003227
aF1145700.0
aF1145700.0
asVs112
p1553
(lp1554
F0.000501
aF2636.4
aF2636.4
asVs111
p1555
(lp1556
F0.000634
aF1000.4
aF1000.4
asVs222
p1557
(lp1558
F0.003518
aF1000.0
aF1000.0
asVs451
p1559
(lp1560
F0.008018
aF1006.5
aF1006.5
asVs431
p1561
(lp1562
F0.000209
aF2643.9
aF2643.9
asVs4117
p1563
(lp1564
F0.000944
aF1000.4
aF1000.4
asVs424
p1565
(lp1566
F0.000431
aF1026.3
aF1026.3
asVvtvtv
p1567
(lp1568
F0.000262
aF1000.0
aF1000.0
asVs491
p1569
(lp1570
F0.000944
aF1001.6
aF1001.6
asVs321
p1571
(lp1572
F0.002275
aF1000.0
aF1000.0
asVs322
p1573
(lp1574
F0.004042
aF1000.0
aF1000.0
asVs323
p1575
(lp1576
F0.004068
aF4551.7
aF4551.7
asVs412
p1577
(lp1578
F0.000843
aF2643.9
aF2643.9
asVs413
p1579
(lp1580
F0.001338
aF3643.6
aF3643.6
asVs471
p1581
(lp1582
F0.000374
aF2004.9
aF2004.9
asVs2111
p1583
(lp1584
F0.001315
aF3.0
aF3.0
asVs442
p1585
(lp1586
F0.00231
aF2643.9
aF2643.9
asVvpvpv
p1587
(lp1588
F0.000261
aF1.6439
aF1.6439
asVs162
p1589
(lp1590
F0.000666
aF1007.5
aF1007.5
asVs291
p1591
(lp1592
F0.000922
aF1000.0
aF1000.0
asVs292
p1593
(lp1594
F0.000814
aF999.0
aF999.0
asVs293
p1595
(lp1596
F0.000366
aF1000.0
aF1000.0
asVs258
p1597
(lp1598
F0.001644
aF17.375
aF17.375
asVs3110
p1599
(lp1600
F0.000729
aF2002.0
aF2002.0
asVs3113
p1601
(lp1602
F0.000147
aF2.0
aF2.0
asVs3112
p1603
(lp1604
F0.001669
aF1639.7
aF1639.7
asVs211
p1605
(lp1606
F0.002212
aF1987.0
aF1987.0
asVs212
p1607
(lp1608
F0.001029
aF2006.5
aF2006.5
asVs141
p1609
(lp1610
F0.001736
aF1001600.0
aF1001600.0
asVs122
p1611
(lp1612
F0.000524
aF2643.9
aF2643.9
asVs251
p1613
(lp1614
F0.00028
aF1004.4
aF1004.4
asVs252
p1615
(lp1616
F0.000615
aF1999.0
aF1999.0
asVs253
p1617
(lp1618
F0.000563
aF1002000.0
aF1002000.0
asVs254
p1619
(lp1620
F0.000575
aF1000.0
aF1000.0
asVs255
p1621
(lp1622
F0.00075
aF999.0
aF999.0
asVs256
p1623
(lp1624
F0.00356
aF2001000.0
aF2001000.0
asVs125
p1625
(lp1626
F0.001386
aF2000000.0
aF2000000.0
asVs415
p1627
(lp1628
F0.000907
aF2641.9
aF2641.9
asVs422
p1629
(lp1630
F0.000449
aF502.87
aF502.87
asVvbor
p1631
(lp1632
F0.002246
aF180.04
aF180.04
asVs421
p1633
(lp1634
F0.000252
aF1007.5
aF1007.5
asVs257
p1635
(lp1636
F0.003182
aF2001000.0
aF2001000.0
asss.